ccopy_reg
_reconstructor
p0
(cmyhmm_scaled
MyHmmScaled
p1
c__builtin__
object
p2
Ntp3
Rp4
(dp5
S'A'
p6
(dp7
Vq1
p8
(dp9
g8
F0.440950446712757
sVq3
p10
F0.5584565520592518
sVq2
p11
F0.0005930012279916085
ssg10
(dp12
g8
F0.9999972407585667
sg10
F2.759241432997431e-06
sg11
F2.9909041151007563e-64
ssg11
(dp13
g8
F1.0
sg10
F2.1325722921608745e-71
sg11
F0.0
sssS'symbols'
p14
(lp15
V11
p16
aV10
p17
aV13
p18
aV12
p19
aV15
p20
aV14
p21
aV1
p22
aV0
p23
aV3
p24
aV2
p25
aV5
p26
aV4
p27
aV7
p28
aV6
p29
aV9
p30
aV8
p31
asS'B'
p32
(dp33
g8
(dp34
g16
F1.659068402935401e-15
sg17
F0.1870527702931046
sg18
F0.03187898191183267
sg19
F0.0743735928691005
sg20
I0
sg21
F0.027660235692377043
sg22
F0.1752958496637743
sg23
F0.04945547586696154
sg24
F0.012342819041447491
sg25
F0.11157389818539638
sg26
F0.021505502354795945
sg27
F0.015939490955916333
sg28
F0.07969745477958165
sg29
F0.14249559760154304
sg30
F0.07072833078416702
sg31
F5.520060179763055e-17
ssg10
(dp35
g16
F0.02921795001453386
sg17
F0.0369554936990894
sg18
F3.3649302447298664e-18
sg19
F0.009758927158649186
sg20
I0
sg21
F0.21225884035889872
sg22
F7.066579789601672e-05
sg23
F0.20152493496368254
sg24
F0.09424674441560028
sg25
F4.653218986046423e-06
sg26
F0.04823309974626782
sg27
F7.991078262558293e-27
sg28
F4.078379890360773e-22
sg29
F0.0017594038685582296
sg30
F0.22096654004592164
sg31
F0.14500274671191604
ssg11
(dp36
g16
F2.5390413220188253e-51
sg17
F2.4695719082315335e-50
sg18
F1.740500894544245e-63
sg19
F1.6719003934106802e-51
sg20
I0
sg21
F8.993912234937207e-51
sg22
F7.792858400292237e-53
sg23
F1.268893201140209e-49
sg24
F2.2754296584845377e-50
sg25
F4.6538970826178255e-54
sg26
F1.0324964580770351e-50
sg27
F2.849569675066768e-75
sg28
F2.5598374537272887e-69
sg29
F1.3418581561867807e-52
sg30
F1.542416503614061e-49
sg31
F1.0
sssS'bwk'
p37
(lp38
(dp39
a(dp40
a(dp41
a(dp42
a(dp43
a(dp44
a(dp45
a(dp46
a(dp47
a(dp48
a(dp49
a(dp50
a(dp51
a(dp52
a(dp53
a(dp54
a(dp55
a(dp56
a(dp57
a(dp58
a(dp59
a(dp60
a(dp61
a(dp62
a(dp63
a(dp64
a(dp65
a(dp66
a(dp67
a(dp68
a(dp69
a(dp70
a(dp71
a(dp72
a(dp73
a(dp74
a(dp75
a(dp76
a(dp77
a(dp78
a(dp79
a(dp80
a(dp81
a(dp82
a(dp83
a(dp84
a(dp85
a(dp86
a(dp87
a(dp88
a(dp89
a(dp90
a(dp91
a(dp92
a(dp93
a(dp94
a(dp95
a(dp96
a(dp97
a(dp98
a(dp99
a(dp100
a(dp101
a(dp102
a(dp103
a(dp104
a(dp105
a(dp106
a(dp107
a(dp108
a(dp109
a(dp110
a(dp111
a(dp112
a(dp113
a(dp114
a(dp115
a(dp116
a(dp117
a(dp118
a(dp119
a(dp120
a(dp121
a(dp122
a(dp123
a(dp124
a(dp125
a(dp126
a(dp127
a(dp128
a(dp129
a(dp130
a(dp131
a(dp132
a(dp133
a(dp134
a(dp135
a(dp136
a(dp137
a(dp138
g8
I1
sg10
I1
sg11
I1
sasS'fwd'
p139
(lp140
(dp141
g8
F1.7356830515097816e-259
sg10
F7.748113814802452e-27
sg11
F1.0
sa(dp142
a(dp143
a(dp144
a(dp145
a(dp146
a(dp147
a(dp148
a(dp149
a(dp150
a(dp151
a(dp152
a(dp153
a(dp154
a(dp155
a(dp156
a(dp157
a(dp158
a(dp159
a(dp160
a(dp161
a(dp162
a(dp163
a(dp164
a(dp165
a(dp166
a(dp167
a(dp168
a(dp169
a(dp170
a(dp171
a(dp172
a(dp173
a(dp174
a(dp175
a(dp176
a(dp177
a(dp178
a(dp179
a(dp180
a(dp181
a(dp182
a(dp183
a(dp184
a(dp185
a(dp186
a(dp187
a(dp188
a(dp189
a(dp190
a(dp191
a(dp192
a(dp193
a(dp194
a(dp195
a(dp196
a(dp197
a(dp198
a(dp199
a(dp200
a(dp201
a(dp202
a(dp203
a(dp204
a(dp205
a(dp206
a(dp207
a(dp208
a(dp209
a(dp210
a(dp211
a(dp212
a(dp213
a(dp214
a(dp215
a(dp216
a(dp217
a(dp218
a(dp219
a(dp220
a(dp221
a(dp222
a(dp223
a(dp224
a(dp225
a(dp226
a(dp227
a(dp228
a(dp229
a(dp230
a(dp231
a(dp232
a(dp233
a(dp234
a(dp235
a(dp236
a(dp237
a(dp238
a(dp239
a(dp240
asS'logpi'
p241
(dp242
g8
F-1.0986122886681098
sg10
F-1.0986122886681098
sg11
F-1.0986122886681098
ssS'M'
p243
I16
sS'fwd_scaled'
p244
(lp245
(dp246
g8
F1.7356830515097816e-259
sg10
F7.748113814802452e-27
sg11
F1.0
sa(dp247
g8
F1.0
sg10
F8.158082744192513e-36
sg11
F2.343245725476042e-138
sa(dp248
g8
F0.20166853644525712
sg10
F0.7983314635547428
sg11
F1.688774919923873e-50
sa(dp249
g8
F0.9759508255640962
sg10
F0.024049174435903858
sg11
F4.870217873658491e-52
sa(dp250
g8
F0.09800365092567394
sg10
F0.9019963490743261
sg11
F1.1582545146364263e-51
sa(dp251
g8
F0.9888823823736281
sg10
F0.011117617626371921
sg11
F2.251379482475752e-52
sa(dp252
g8
F1.363415961706231e-15
sg10
F0.9925593634363186
sg11
F0.007440636563680034
sa(dp253
g8
F0.9999999989549194
sg10
F1.0450806119538838e-09
sg11
F9.716547362372402e-69
sa(dp254
g8
F0.8030122995489184
sg10
F0.19698770045108177
sg11
F3.9892919155013015e-51
sa(dp255
g8
F0.8637354447811351
sg10
F0.1362645552188649
sg11
F2.759555184574388e-51
sa(dp256
g8
F0.8468912947414091
sg10
F0.15310870525859077
sg11
F3.1006750314775935e-51
sa(dp257
g8
F1.0
sg10
F2.5805409190920464e-20
sg11
F4.908661722691955e-69
sa(dp258
g8
F0.0933117784031482
sg10
F0.9066882215968519
sg11
F1.1642794950170097e-51
sa(dp259
g8
F0.9894379084280975
sg10
F0.010562091571902382
sg11
F2.1388769446780805e-52
sa(dp260
g8
F0.2055375979129504
sg10
F0.7944624020870497
sg11
F1.6805902936316985e-50
sa(dp261
g8
F1.0
sg10
F3.731489814205727e-21
sg11
F7.097848310146661e-70
sa(dp262
g8
F0.9995178244765731
sg10
F0.00048217552342682044
sg11
F1.611416744853194e-53
sa(dp263
g8
F1.3310510706856558e-15
sg10
F0.9925593630439454
sg11
F0.007440636956053254
sa(dp264
g8
F1.0
sg10
F1.0836437411622878e-21
sg11
F4.613606572639877e-78
sa(dp265
g8
F0.9995178244765731
sg10
F0.00048217552342682044
sg11
F1.611416744853194e-53
sa(dp266
g8
F0.0934040987883465
sg10
F0.9065959012116535
sg11
F1.1641609435203785e-51
sa(dp267
g8
F0.7026066382694073
sg10
F0.2973933617305927
sg11
F3.8186489209246194e-52
sa(dp268
g8
F0.999753623142174
sg10
F0.00024637685782599353
sg11
F8.23382658851353e-54
sa(dp269
g8
F0.9839686036730269
sg10
F0.016031396326973302
sg11
F3.705337369734781e-53
sa(dp270
g8
F0.09091005099038985
sg10
F0.9090899490096102
sg11
F6.65151653486025e-51
sa(dp271
g8
F0.9999969738084581
sg10
F3.0261915419918744e-06
sg11
F9.171833592704365e-56
sa(dp272
g8
F0.9999999999999996
sg10
F5.002054046710741e-16
sg11
F7.841092829679764e-63
sa(dp273
g8
F0.20166853644525728
sg10
F0.7983314635547426
sg11
F1.6887749199238726e-50
sa(dp274
g8
F0.9843375370744528
sg10
F0.015662462925547283
sg11
F8.131576893050298e-53
sa(dp275
g8
F0.0908413618633049
sg10
F0.9091586381366952
sg11
F6.652019123452942e-51
sa(dp276
g8
F0.9999969762169136
sg10
F3.023783086361169e-06
sg11
F9.164533627429259e-56
sa(dp277
g8
F0.9995178277732581
sg10
F0.0004821722267417977
sg11
F1.6114057274025139e-53
sa(dp278
g8
F0.09340409815690211
sg10
F0.906595901843098
sg11
F1.1641609443312363e-51
sa(dp279
g8
F0.852920783564229
sg10
F0.14707921643577107
sg11
F3.111136165003659e-51
sa(dp280
g8
F0.21775658841886567
sg10
F0.7822434115811344
sg11
F1.492635872689812e-50
sa(dp281
g8
F0.9738241851615054
sg10
F0.026175814838494488
sg11
F5.3008951395573254e-52
sa(dp282
g8
F0.8700780340720652
sg10
F0.12992196592793484
sg11
F6.745369298549587e-52
sa(dp283
g8
F0.2112947944792833
sg10
F0.7887052055207167
sg11
F1.5049661009559167e-50
sa(dp284
g8
F1.0
sg10
F1.2027743660453314e-24
sg11
F1.2998072875121837e-74
sa(dp285
g8
F0.20166853644525712
sg10
F0.7983314635547428
sg11
F1.688774919923873e-50
sa(dp286
g8
F0.9999515438511206
sg10
F4.8456148879336246e-05
sg11
F1.6193589205901143e-54
sa(dp287
g8
F0.1668590275511066
sg10
F0.8331409724488934
sg11
F1.5897572834861464e-50
sa(dp288
g8
F0.55856744785245
sg10
F0.44143255214754995
sg11
F5.6683012551063704e-52
sa(dp289
g8
F0.9941864977994269
sg10
F0.0058135022005731014
sg11
F1.3436697892308217e-53
sa(dp290
g8
F0.9999294571836236
sg10
F7.054281637635418e-05
sg11
F2.138129365881466e-54
sa(dp291
g8
F1.3298122633244961e-15
sg10
F0.9925593630289269
sg11
F0.007440636971071841
sa(dp292
g8
F0.999999468562915
sg10
F5.314370849940025e-07
sg11
F2.920316974635438e-66
sa(dp293
g8
F0.20166873000103896
sg10
F0.7983312699989611
sg11
F1.6887745104752888e-50
sa(dp294
g8
F1.0
sg10
F3.652347615441844e-21
sg11
F6.947304882006419e-70
sa(dp295
g8
F0.08796272364935011
sg10
F0.9120372763506499
sg11
F6.673081710651566e-51
sa(dp296
g8
F0.8304257003322355
sg10
F0.1695742996677645
sg11
F3.2355650059644315e-51
sa(dp297
g8
F0.9999511079730603
sg10
F4.889202693963953e-05
sg11
F1.4818996680965145e-54
sa(dp298
g8
F0.983961555181052
sg10
F0.01603844481894799
sg11
F3.7069664916244925e-53
sa(dp299
g8
F0.1719381500554044
sg10
F0.8280618499445956
sg11
F1.5800654331338974e-50
sa(dp300
g8
F0.9797930902208143
sg10
F0.020206909779185777
sg11
F4.0921004095121086e-52
sa(dp301
g8
F1.3916325688987023e-15
sg10
F0.9925593637784004
sg11
F0.007440636221598208
sa(dp302
g8
F0.9999914241623823
sg10
F8.575837617620433e-06
sg11
F5.151346381146606e-65
sa(dp303
g8
F0.16684648623211337
sg10
F0.8331535137678866
sg11
F1.5897812145070656e-50
sa(dp304
g8
F0.9999941867441866
sg10
F5.813255813495698e-06
sg11
F1.7619351637911137e-55
sa(dp305
g8
F0.9999285250314552
sg10
F7.147496854461238e-05
sg11
F2.1663826514003936e-54
sa(dp306
g8
F0.1668662666537151
sg10
F0.8331337333462849
sg11
F1.5897434700175586e-50
sa(dp307
g8
F0.9986758270945848
sg10
F0.001324172905415093
sg11
F3.0604860002824866e-54
sa(dp308
g8
F0.09356548153750745
sg10
F0.9064345184624925
sg11
F1.1639537068802541e-51
sa(dp309
g8
F0.9992890946850762
sg10
F0.0007109053149237635
sg11
F1.6430371906544266e-54
sa(dp310
g8
F0.16706744168462864
sg10
F0.8329325583153714
sg11
F1.589359593020583e-50
sa(dp311
g8
F0.9999941782545493
sg10
F5.8217454507037675e-06
sg11
F1.7645083503604254e-55
sa(dp312
g8
F0.16684562016486035
sg10
F0.8331543798351396
sg11
F1.5897828671142245e-50
sa(dp313
g8
F0.5425278244905223
sg10
F0.4574721755094777
sg11
F3.347093391763504e-51
sa(dp314
g8
F0.9944245706109693
sg10
F0.005575429389030656
sg11
F1.2886438872334098e-53
sa(dp315
g8
F0.26395351091868346
sg10
F0.7360464890813166
sg11
F4.7748815671377207e-51
sa(dp316
g8
F0.7212903638774653
sg10
F0.2787096361225348
sg11
F1.8080206041226635e-51
sa(dp317
g8
F0.39891646854449003
sg10
F0.60108353145551
sg11
F3.8993423932388065e-51
sa(dp318
g8
F0.9998905888760986
sg10
F0.00010941112390136742
sg11
F3.6564611198903864e-54
sa(dp319
g8
F0.20170838765271915
sg10
F0.798291612347281
sg11
F1.6886906185388753e-50
sa(dp320
g8
F1.0
sg10
F3.653156905843105e-21
sg11
F6.948844305389515e-70
sa(dp321
g8
F1.3296000673009613e-15
sg10
F0.9925593630263542
sg11
F0.00744063697364438
sa(dp322
g8
F1.0
sg10
F7.87683026205967e-26
sg11
F4.0649607131790577e-84
sa(dp323
g8
F0.8632581710604663
sg10
F0.1367418289395337
sg11
F7.099448123223094e-52
sa(dp324
g8
F0.8955641794651499
sg10
F0.10443582053485012
sg11
F5.422160255949494e-52
sa(dp325
g8
F2.2537173995397795e-13
sg10
F0.9999999999997746
sg11
F2.6334949787201014e-51
sa(dp326
g8
F0.9999994645790088
sg10
F5.354209910929359e-07
sg11
F4.949246948588214e-64
sa(dp327
g8
F0.09331188087929601
sg10
F0.9066881191207039
sg11
F1.1642793634241804e-51
sa(dp328
g8
F0.8530514524094869
sg10
F0.146948547590513
sg11
F3.108371991636559e-51
sa(dp329
g8
F0.2598370497794783
sg10
F0.7401629502205218
sg11
F1.5657250413971717e-50
sa(dp330
g8
F0.9978148662976476
sg10
F0.002185133702352388
sg11
F5.050429502396266e-54
sa(dp331
g8
F0.9995202002845913
sg10
F0.00047979971540863857
sg11
F1.603476845382799e-53
sa(dp332
g8
F0.09340364372882111
sg10
F0.9065963562711788
sg11
F1.1641615278765604e-51
sa(dp333
g8
F0.9999789863849056
sg10
F2.1013615094494558e-05
sg11
F7.022353239145728e-55
sa(dp334
g8
F0.9995178473861854
sg10
F0.00048215261381441
sg11
F1.6113401814195948e-53
sa(dp335
g8
F0.8031847668270443
sg10
F0.19681523317295574
sg11
F3.9857991888649665e-51
sa(dp336
g8
F0.28194219353290867
sg10
F0.7180578064670914
sg11
F1.5189637422378438e-50
sa(dp337
g8
F0.9771088206173627
sg10
F0.022891179382637416
sg11
F1.1884636775149665e-52
sa(dp338
g8
F0.8110534662304933
sg10
F0.18894653376950665
sg11
F3.826445969527604e-51
sa(dp339
g8
F0.23418139606969435
sg10
F0.7658186039303057
sg11
F1.4612944790373436e-50
sa(dp340
g8
F0.6796284049927145
sg10
F0.3203715950072856
sg11
F6.776969261047925e-51
sa(dp341
g8
F0.8938827213446371
sg10
F0.10611727865536288
sg11
F2.1490266425205218e-51
sa(dp342
g8
F0.9873124880887173
sg10
F0.012687511911282702
sg11
F2.9324634957449447e-53
sa(dp343
g8
F0.9844058694531379
sg10
F0.015594130546862131
sg11
F3.604271885577514e-53
sa(dp344
g8
F0.0963335687344052
sg10
F0.9036664312655948
sg11
F1.1603991194584982e-51
sa(dp345
g8
F0.8487832305694853
sg10
F0.15121676943051454
sg11
F3.198662107170287e-51
sasS'N'
p346
I3
sS'states'
p347
(lp348
g8
ag10
ag11
asS'clist'
p349
(lp350
F1.0
aF5.708527189782496
aF6.4668229844967415
aF5.873294184247555
aF7.7988465228167785
aF5.586990848841937
aF12.405699416621237
aF5.708542776544381
aF9.70213533211154
aF8.3577311530657
aF8.730658899467546
aF23.804419387985256
aF7.650882930673302
aF5.574691559232652
aF6.504179346543881
aF14.18265683678573
aF12.907719946090944
aF12.273696316992392
aF31.390446319737784
aF12.907719946090944
aF7.653794360119952
aF26.865696570118974
aF9.387093189039444
aF15.6318845181769
aF17.329102057277765
aF9.448196660506992
aF71.01164321700492
aF6.466822984496742
aF14.879145911161448
aF17.32391594101725
aF9.447815243377272
aF12.907670724448952
aF7.653794340206629
aF12.754759976589332
aF8.233028586931672
aF5.920377783650005
aF25.560335592830405
aF8.13734930091131
aF71.1715201561612
aF6.4668229844967415
aF6.4320088508108535
aF7.479392316642348
aF22.32325516293892
aF10.145968242000963
aF20.140524525853138
aF12.268643730490183
aF5.340859706139962
aF6.46682485330651
aF14.148159680603797
aF17.10657510290954
aF17.30477301931265
aF16.711778794429872
aF15.635668804485617
aF7.554598493033135
aF5.788226840622026
aF12.520783370033838
aF14.174748814654167
aF7.479206618296308
aF9.889572470477049
aF20.28814559885348
aF7.479499505478063
aF7.735678573233635
aF7.65888375058425
aF7.406419470065296
aF7.482478288692584
aF9.89091693911287
aF7.4791937945050835
aF51.42681705356694
aF10.01814860562587
aF27.539707681788816
aF39.28660504499968
aF31.006290356700898
aF7.3421060962348585
aF6.467207753812608
aF14.148512440797536
aF12.2677782700498
aF12.556178527895117
aF26.19786900156896
aF23.17784358083169
aF68.47979060533193
aF5.340859794224223
aF7.650886162376396
aF12.756021603661553
aF7.0284486040433
aF8.197922435876954
aF12.872247594043845
aF7.653780009294842
aF6.022274052363103
aF12.907377890743682
aF9.69831692434339
aF7.241877044002797
aF15.554899696223579
aF9.52410473027476
aF8.476229450924963
aF11.081596371414884
aF7.690273556068247
aF13.836576236963491
aF15.397119562653549
aF7.746178561569198
aF12.714811289045471
asS'logB'
p351
(dp352
g8
(dp353
g16
F-2.9212348804951955
sg17
F-2.5633371230760758
sg18
F-2.2705196883974508
sg19
F-5.11102215480017
sg20
F-2.6570023729358256
sg21
F-2.394531914401664
sg22
F-2.5567896167969173
sg23
F-3.093728761473657
sg24
F-3.955377711169584
sg25
F-2.5311773915230478
sg26
F-2.3856993883549533
sg27
F-2.744681015196079
sg28
F-2.319990802883572
sg29
F-2.6363994576488694
sg30
F-3.0060044723555492
sg31
F-6.771947206302559
ssg10
(dp354
V11
p355
F-2.2061636400830515
sV10
p356
F-2.7886349913133275
sV13
p357
F-2.2366278495501097
sV12
p358
F-4.803495959222991
sV15
p359
F-2.3946538192158955
sV14
p360
F-3.4340383811510673
sV1
p361
F-4.3946466318475315
sV0
p362
F-2.883896900512308
sV3
p363
F-2.4577642134121223
sV2
p364
F-2.428127950235306
sV5
p365
F-3.4036523078985326
sV4
p366
F-2.347181559984261
sV7
p367
F-3.329045325183329
sV6
p368
F-2.1769737091555577
sV9
p369
F-3.144112388866956
sV8
p370
F-3.626896918534498
ssg11
(dp371
V11
p372
F-3.776462439005156
sV10
p373
F-2.56023877712607
sV13
p374
F-2.2875507466486336
sV12
p375
F-4.0011284607127555
sV15
p376
F-2.352279906055419
sV14
p377
F-3.184664319984376
sV1
p378
F-4.212541507026543
sV0
p379
F-2.2779335809252834
sV3
p380
F-2.523757470272191
sV2
p381
F-2.89618699908023
sV5
p382
F-2.2244950581471348
sV4
p383
F-2.159180925692466
sV7
p384
F-3.3688691655609246
sV6
p385
F-3.3780880383582845
sV9
p386
F-2.504124323723734
sV8
p387
F-4.078634034718041
sssS'logA'
p388
(dp389
g8
(dp390
Vq1
p391
F-0.12159375102178108
sVq3
p392
F-2.1714793139375113
sVq2
p393
F-7.635223578707189
ssg10
(dp394
Vq1
p395
F-0.051018605614936104
sVq3
p396
F-3.3863773220688
sVq2
p397
F-4.140933416759925
ssg11
(dp398
Vq1
p399
F-0.02848274252499949
sVq3
p400
F-3.5815404521278484
sVq2
p401
F-8.301505382807537
sssS'model'
p402
(dp403
VA
p404
(dp405
g8
(dp406
g391
F0.8855080321744565
sg392
F0.11400883724062709
sg393
F0.00048313058491640786
ssg10
(dp407
g395
F0.9502609901778785
sg396
F0.033831014039701346
sg397
F0.01590799578242019
ssg11
(dp408
g399
F0.9719190668704077
sg400
F0.027832790133992855
sg401
F0.0002481429955994003
sssVB
p409
(dp410
Vq1
p411
(dp412
g16
F0.05386712674749742
sg17
F0.077047194979542
sg18
F0.103258503890451
sg19
F0.00602991626464192
sg20
F0.07015821501075101
sg21
F0.09121536553027698
sg22
F0.07755331708317478
sg23
F0.045332604399164866
sg24
F0.01915143347300857
sg25
F0.07956528562270637
sg26
F0.09202459613648334
sg27
F0.06426879844520396
sg28
F0.0982744894421265
sg29
F0.07161867194567796
sg30
F0.0494890190022545
sg31
F0.0011454620270388422
ssVq3
p413
(dp414
g355
F0.1101223079879357
sg356
F0.061505111653083845
sg357
F0.1068181044446883
sg358
F0.008201026421244215
sg359
F0.09120424661582534
sg360
F0.032256413698180074
sg361
F0.012343241263237551
sg362
F0.05591643692155573
sg363
F0.08562617897768209
sg364
F0.08820179627603751
sg365
F0.03325160282102376
sg366
F0.09563833362215457
sg367
F0.03582729215985531
sg368
F0.11338414535406975
sg369
F0.04310516769831538
sg370
F0.026598594085111
ssVq2
p415
(dp416
g372
F0.022903571062053995
sg373
F0.07728628404311588
sg374
F0.10151479306384253
sg375
F0.018294982067217063
sg376
F0.09515197715995265
sg377
F0.04139213798270078
sg378
F0.014808684096303926
sg379
F0.10249578728310807
sg380
F0.08015784944613936
sg381
F0.055233424144602555
sg382
F0.10812200017652181
sg383
F0.11541961957709766
sg384
F0.034428548326521306
sg385
F0.03411261443362269
sg386
F0.08174715069273093
sg387
F0.016930576444468923
sssVpi
p417
(dp418
Vq1
p419
F0.3333333333333333
sVq3
p420
F0.3333333333333333
sVq2
p421
F0.3333333333333333
sssS'pi'
p422
(dp423
g8
F7.673334731695437e-260
sg10
F7.748092494284159e-27
sg11
F1.0
ssS'bwk_scaled'
p424
(lp425
(dp426
g8
F0.4420930840466981
sg10
F0.9999972482956748
sg11
F0.9999999999999997
sa(dp427
g8
F5.708527189782494
sg10
F1.3253291604701671
sg11
F1.325307514089714
sa(dp428
g8
F3.290868254184044
sg10
F7.269108966595744
sg11
F7.269128587727065
sa(dp429
g8
F6.003459604990322
sg10
F0.5909902044423916
sg11
F0.5909634781465367
sa(dp430
g8
F3.6468597429481195
sg10
F8.249967930835615
sg11
F8.249990634365595
sa(dp431
g8
F5.649802889196278
sg10
F2.768867616254275e-05
sg11
F7.517817137076385e-15
sa(dp432
g8
F5.488122167472738
sg10
F12.405699162754386
sg11
F12.405733281724766
sa(dp433
g8
F5.708542772931643
sg10
F9.165442096378436
sg11
F9.16545913766348
sa(dp434
g8
F8.575099743985863
sg10
F14.296449785358394
sg11
F14.296477992194593
sa(dp435
g8
F7.869949516232184
sg10
F11.449615820870632
sg11
F11.44963346148754
sa(dp436
g8
F7.3166688842236836
sg10
F16.5518721527493
sg11
F16.551917702778958
sa(dp437
g8
F23.804419387985252
sg10
F2.4679791931130644
sg11
F2.4678738352418774
sa(dp438
g8
F3.757556622837908
sg10
F8.051564436216688
sg11
F8.05158561413156
sa(dp439
g8
F5.620566274490966
sg10
F1.2772300189757881
sg11
F1.277208569560263
sa(dp440
g8
F3.2475727621910293
sg10
F7.3467051765101425
sg11
F7.3467253943221
sa(dp441
g8
F14.182656836785727
sg10
F32.08420743215141
sg11
F32.08429572648959
sa(dp442
g8
F12.913946704586351
sg10
F6.328894924154094e-05
sg11
F1.7170431308100417e-14
sa(dp443
g8
F5.425523425349062
sg10
F12.27369606567242
sg11
F12.273729842348233
sa(dp444
g8
F31.39044631973779
sg10
F70.97234636406105
sg11
F70.97254159050077
sa(dp445
g8
F12.906751285743649
sg10
F14.91568848856064
sg11
F14.915698363189623
sa(dp446
g8
F41.882657591122765
sg10
F4.127288098213758
sg11
F4.127101665519611
sa(dp447
g8
F19.543779357813992
sg10
F44.16409088628007
sg11
F44.16421231889322
sa(dp448
g8
F9.384182769269344
sg10
F21.197060795979585
sg11
F21.19711905958552
sa(dp449
g8
F15.862656719308216
sg10
F1.4676410622485236
sg11
F1.4675699812445442
sa(dp450
g8
F8.070807057916728
sg10
F18.254942312571462
sg11
F18.254992542932914
sa(dp451
g8
F9.448160571350135
sg10
F21.373762887211342
sg11
F21.373821706873827
sa(dp452
g8
F71.01164321700497
sg10
F16.349266273302938
sg11
F16.348996324226192
sa(dp453
g8
F3.2634686393785706
sg10
F7.2760304528069835
sg11
F7.276050243380919
sa(dp454
g8
F15.093677544873582
sg10
F1.3964937282594077
sg11
F1.3964260930723005
sa(dp455
g8
F8.068065882410327
sg10
F18.248742466616402
sg11
F18.248792679918942
sa(dp456
g8
F9.447779190478347
sg10
F21.37088938180343
sg11
F21.37094818916944
sa(dp457
g8
F12.912682526769766
sg10
F2.5184664296108012
sg11
F2.518415099746491
sa(dp458
g8
F7.071631307653538
sg10
F7.713773006473889
sg11
F7.713776154002174
sa(dp459
g8
F14.285918012498232
sg10
F3.875487001142197
sg11
F3.8754355871514536
sa(dp460
g8
F6.0208316367105885
sg10
F8.84884772156276
sg11
F8.848861658631677
sa(dp461
g8
F5.740345026606152
sg10
F12.618173210930557
sg11
F12.618207133001512
sa(dp462
g8
F28.59160817473994
sg10
F5.260121768577378
sg11
F5.260006551634848
sa(dp463
g8
F4.077819364461749
sg10
F9.224900819020418
sg11
F9.224926205544797
sa(dp464
g8
F71.17152015616121
sg10
F16.18369632580353
sg11
F16.183424770301063
sa(dp465
g8
F3.223161754335138
sg10
F7.286212477299888
sg11
F7.2862325171365985
sa(dp466
g8
F6.431853250795068
sg10
F9.643004351049974
sg11
F9.643020177502185
sa(dp467
g8
F29.708087371447437
sg10
F3.027494542760642
sg11
F3.0273627960076803
sa(dp468
g8
F14.670277496859295
sg10
F32.00696376715864
sg11
F32.007049272662705
sa(dp469
g8
F10.07206061996099
sg10
F22.78515842057573
sg11
F22.785221124337088
sa(dp470
g8
F20.141945388444718
sg10
F9.871208156959248e-05
sg11
F2.8273697793108236e-14
sa(dp471
g8
F5.725610589807118
sg10
F12.268643490380558
sg11
F12.2686757604182
sa(dp472
g8
F5.340861899483128
sg10
F1.2136693728145211
sg11
F1.2136489908173078
sa(dp473
g8
F3.221067596417612
sg10
F7.286744814464104
sg11
F7.2867648672677605
sa(dp474
g8
F14.1481596806038
sg10
F11.00700693897314
sg11
F11.006991396302384
sa(dp475
g8
F66.88029153830627
sg10
F12.306078700693828
sg11
F12.305809199043109
sa(dp476
g8
F14.254610634920809
sg10
F32.241784342067604
sg11
F32.24187305870525
sa(dp477
g8
F16.710753063502892
sg10
F37.69026631322504
sg11
F37.69036978847579
sa(dp478
g8
F15.843018740797355
sg10
F2.914711872367853
sg11
F2.9146480290291215
sa(dp479
g8
F3.6938385115998416
sg10
F8.356243840008116
sg11
F8.35626683600448
sa(dp480
g8
F5.907600608088725
sg10
F2.8952097145367813e-05
sg11
F1.3576117894715491e-14
sa(dp481
g8
F9.566212646912577
sg10
F12.520783261765544
sg11
F12.520797812711685
sa(dp482
g8
F14.17484800838826
sg10
F2.608195453051224
sg11
F2.608138333913904
sa(dp483
g8
F3.64605739638132
sg10
F8.246829233230212
sg11
F8.24685192523366
sa(dp484
g8
F9.889499907252851
sg10
F22.37187235483115
sg11
F22.371933920604228
sa(dp485
g8
F20.289328587862578
sg10
F3.7382333837008574
sg11
F3.7381516500717082
sa(dp486
g8
F3.651092310563957
sg10
F8.246281584124269
sg11
F8.246304248564977
sa(dp487
g8
F7.744921714797616
sg10
F0.764608550118518
sg11
F0.764574081941371
sa(dp488
g8
F3.5822948539014683
sg10
F8.07968414529513
sg11
F8.07970632733906
sa(dp489
g8
F7.4107184555173085
sg10
F1.363520099049921
sg11
F1.363490236412573
sa(dp490
g8
F3.6479760438298077
sg10
F8.251592755149343
sg11
F8.251615461185335
sa(dp491
g8
F9.890885643021964
sg10
F15.266608641188508
sg11
F15.266635138556538
sa(dp492
g8
F30.585460376948262
sg10
F2.851984875066694
sg11
F2.851847930141981
sa(dp493
g8
F32.7794045870246
sg10
F73.54125517558795
sg11
F73.54145622044017
sa(dp494
g8
F10.04552862981805
sg10
F5.134691762967096
sg11
F5.13466749991716
sa(dp495
g8
F23.804957824532057
sg10
F28.87902571651838
sg11
F28.87905068367316
sa(dp496
g8
F48.704170041200676
sg10
F14.914290626839362
sg11
F14.914123741784032
sa(dp497
g8
F17.631765513121728
sg10
F39.88245804364754
sg11
F39.88256778888859
sa(dp498
g8
F7.342726911283382
sg10
F1.6685776439993791
sg11
F1.6685496224099312
sa(dp499
g8
F3.2213386323071798
sg10
F7.2873579556987185
sg11
F7.287378010189712
sa(dp500
g8
F14.148512440797543
sg10
F6.933933569595203e-05
sg11
F1.8811914477720438e-14
sa(dp501
g8
F5.422907383572394
sg10
F12.267778018851013
sg11
F12.267811779240622
sa(dp502
g8
F12.556178527895122
sg10
F20.91141281434164
sg11
F20.91145400639426
sa(dp503
g8
F22.341745511716436
sg10
F50.54177413322685
sg11
F50.54191322189679
sa(dp504
g8
F25.880702652799158
sg10
F0.00012778753517385724
sg11
F4.82192311698068e-12
sa(dp505
g8
F31.6266221992935
sg10
F68.47979060534024
sg11
F68.47997236590098
sa(dp506
g8
F5.340862131849405
sg10
F0.9749048396091163
sg11
F0.9748832794056914
sa(dp507
g8
F6.615788574971765
sg10
F7.757413314036899
sg11
F7.757418927674303
sa(dp508
g8
F14.37220539750411
sg10
F3.3739082360635226
sg11
F3.3738539209359804
sa(dp509
g8
F3.749116523403591
sg10
F8.179670740772448
sg11
F8.179692592513108
sa(dp510
g8
F8.17537579769425
sg10
F18.493571960442424
sg11
F18.493622852026327
sa(dp511
g8
F12.877817485361696
sg10
F1.2690333636193134
sg11
F1.2689760404642563
sa(dp512
g8
F3.5730509642419257
sg10
F8.074204114511478
sg11
F8.07422631515619
sa(dp513
g8
F6.022114615334102
sg10
F13.609434944575563
sg11
F13.609472366855492
sa(dp514
g8
F12.900449625719546
sg10
F27.26989370965976
sg11
F27.26996457834055
sa(dp515
g8
F11.283835943496854
sg10
F3.2279604221130067
sg11
F3.2279206358785513
sa(dp516
g8
F4.717852796022525
sg10
F8.232923902064382
sg11
F8.232941233370177
sa(dp517
g8
F15.250855987699468
sg10
F28.53298983680619
sg11
F28.53305533301798
sa(dp518
g8
F9.796958722420827
sg10
F8.352878290234008
sg11
F8.352871134949908
sa(dp519
g8
F17.378803361545696
sg10
F5.753891319802026
sg11
F5.753833903583025
sa(dp520
g8
F9.622158937800931
sg10
F14.177610970247057
sg11
F14.177633420719
sa(dp521
g8
F6.8330032911178
sg10
F14.911520529904157
sg11
F14.911560373611017
sa(dp522
g8
F13.621079211831576
sg10
F30.606050468510794
sg11
F30.606134241587565
sa(dp523
g8
F15.538534430558084
sg10
F6.470066811951732
sg11
F6.470022016248793
sa(dp524
g8
F15.230229566778034
sg10
F6.948356138407632
sg11
F6.948315225147765
sa(dp525
g8
F12.714811289045471
sg10
F12.714811289045471
sg11
F12.714811289045471
sasb.