ccopy_reg
_reconstructor
p0
(cmyhmm_scaled
MyHmmScaled
p1
c__builtin__
object
p2
Ntp3
Rp4
(dp5
S'A'
p6
(dp7
Vq1
p8
(dp9
g8
F0.9318497558207041
sVq3
p10
F0.0681465038973789
sVq2
p11
F3.740281917174496e-06
ssg10
(dp12
g8
F4.854627168234099e-19
sg10
F0.8246088438481713
sg11
F0.1753911561518287
ssg11
(dp13
g8
F0.8641045143525272
sg10
F2.536029651499855e-09
sg11
F0.13589548311144325
sssS'symbols'
p14
(lp15
V11
p16
aV10
p17
aV13
p18
aV12
p19
aV15
p20
aV14
p21
aV1
p22
aV0
p23
aV3
p24
aV2
p25
aV5
p26
aV4
p27
aV7
p28
aV6
p29
aV9
p30
aV8
p31
asS'B'
p32
(dp33
g8
(dp34
g16
F0.06984204459130032
sg17
I0
sg18
I0
sg19
I0
sg20
I0
sg21
I0
sg22
F0.08846683593008153
sg23
F0.03433436367346672
sg24
F0.07160840389611436
sg25
F0.05660120856279872
sg26
F0.523561196082492
sg27
I0
sg28
F0.07068413213892392
sg29
F0.08490181512482185
sg30
F1.5610965944435918e-32
sg31
F2.174332728726911e-29
ssg10
(dp35
g16
F0.048917341810197176
sg17
I0
sg18
I0
sg19
I0
sg20
I0
sg21
I0
sg22
F0.2641992243332459
sg23
F3.40956453818217e-21
sg24
F0.043179830799397224
sg25
F5.926357085894929e-09
sg26
F1.2188181214727128e-23
sg27
I0
sg28
F0.00021886732794352656
sg29
F0.09192639124176627
sg30
F0.2757791692805465
sg31
F0.2757791692805465
ssg11
(dp36
g16
F2.01891617416299e-16
sg17
I0
sg18
I0
sg19
I0
sg20
I0
sg21
I0
sg22
F4.128232451666528e-20
sg23
F0.9999999999999996
sg24
F8.640361691599177e-22
sg25
F3.905038442673681e-46
sg26
F2.6959885284981875e-36
sg27
I0
sg28
F3.141943539726055e-32
sg29
F1.8666223658432702e-16
sg30
F3.243307742877357e-18
sg31
F5.892263581654753e-23
sssS'bwk'
p37
(lp38
(dp39
a(dp40
a(dp41
a(dp42
a(dp43
a(dp44
a(dp45
a(dp46
a(dp47
a(dp48
a(dp49
a(dp50
a(dp51
a(dp52
a(dp53
a(dp54
a(dp55
a(dp56
a(dp57
a(dp58
a(dp59
a(dp60
a(dp61
a(dp62
a(dp63
a(dp64
a(dp65
a(dp66
a(dp67
a(dp68
a(dp69
a(dp70
a(dp71
a(dp72
a(dp73
a(dp74
a(dp75
a(dp76
a(dp77
a(dp78
a(dp79
a(dp80
a(dp81
a(dp82
a(dp83
a(dp84
a(dp85
a(dp86
a(dp87
a(dp88
a(dp89
a(dp90
a(dp91
a(dp92
a(dp93
a(dp94
a(dp95
a(dp96
a(dp97
a(dp98
a(dp99
a(dp100
a(dp101
a(dp102
a(dp103
a(dp104
a(dp105
a(dp106
a(dp107
a(dp108
a(dp109
a(dp110
a(dp111
a(dp112
a(dp113
a(dp114
a(dp115
a(dp116
a(dp117
a(dp118
a(dp119
a(dp120
a(dp121
a(dp122
a(dp123
a(dp124
a(dp125
a(dp126
a(dp127
a(dp128
a(dp129
a(dp130
a(dp131
a(dp132
a(dp133
a(dp134
a(dp135
a(dp136
a(dp137
a(dp138
g8
I1
sg10
I1
sg11
I1
sasS'fwd'
p139
(lp140
(dp141
g8
F1.2157236995170605e-55
sg10
F0.0
sg11
F0.999999999999999
sa(dp142
a(dp143
a(dp144
a(dp145
a(dp146
a(dp147
a(dp148
a(dp149
a(dp150
a(dp151
a(dp152
a(dp153
a(dp154
a(dp155
a(dp156
a(dp157
a(dp158
a(dp159
a(dp160
a(dp161
a(dp162
a(dp163
a(dp164
a(dp165
a(dp166
a(dp167
a(dp168
a(dp169
a(dp170
a(dp171
a(dp172
a(dp173
a(dp174
a(dp175
a(dp176
a(dp177
a(dp178
a(dp179
a(dp180
a(dp181
a(dp182
a(dp183
a(dp184
a(dp185
a(dp186
a(dp187
a(dp188
a(dp189
a(dp190
a(dp191
a(dp192
a(dp193
a(dp194
a(dp195
a(dp196
a(dp197
a(dp198
a(dp199
a(dp200
a(dp201
a(dp202
a(dp203
a(dp204
a(dp205
a(dp206
a(dp207
a(dp208
a(dp209
a(dp210
a(dp211
a(dp212
a(dp213
a(dp214
a(dp215
a(dp216
a(dp217
a(dp218
a(dp219
a(dp220
a(dp221
a(dp222
a(dp223
a(dp224
a(dp225
a(dp226
a(dp227
a(dp228
a(dp229
a(dp230
a(dp231
a(dp232
a(dp233
a(dp234
a(dp235
a(dp236
a(dp237
a(dp238
a(dp239
a(dp240
asS'logpi'
p241
(dp242
g8
F-1.0986122886681098
sg10
F-1.0986122886681098
sg11
F-1.0986122886681098
ssS'M'
p243
I16
sS'fwd_scaled'
p244
(lp245
(dp246
g8
F1.2157236995170617e-55
sg10
F0.0
sg11
F1.0
sa(dp247
g8
F1.0
sg10
F7.912844611294282e-31
sg11
F7.804803339884126e-36
sa(dp248
g8
F0.9999999999999999
sg10
F1.5284457353540252e-23
sg11
F2.2238030128273497e-40
sa(dp249
g8
F1.0
sg10
F1.5284457353540252e-23
sg11
F2.2238030128273497e-40
sa(dp250
g8
F0.9999999999999999
sg10
F1.5284457353540252e-23
sg11
F2.2238030128273497e-40
sa(dp251
g8
F1.0
sg10
F1.5284457353540252e-23
sg11
F2.2238030128273497e-40
sa(dp252
g8
F0.9999999999999999
sg10
F1.5284457353540252e-23
sg11
F2.2238030128273497e-40
sa(dp253
g8
F0.9998694918805694
sg10
F3.438069751968379e-20
sg11
F0.00013050811943051286
sa(dp254
g8
F0.8207690906140491
sg10
F0.179230909385951
sg11
F2.4430152833871008e-23
sa(dp255
g8
F0.9999999999999999
sg10
F5.566790523125533e-23
sg11
F2.0401486769700398e-36
sa(dp256
g8
F1.0
sg10
F1.5284457353540252e-23
sg11
F2.2238030128273497e-40
sa(dp257
g8
F0.999999991257747
sg10
F8.742252940297661e-09
sg11
F1.5809333392100862e-48
sa(dp258
g8
F0.9999999999999999
sg10
F1.5284458970260404e-23
sg11
F2.224619681568286e-40
sa(dp259
g8
F1.0
sg10
F1.5284457353540252e-23
sg11
F2.2238030128273497e-40
sa(dp260
g8
F0.9999999999999999
sg10
F1.5284457353540252e-23
sg11
F2.2238030128273497e-40
sa(dp261
g8
F1.0
sg10
F1.5284457353540252e-23
sg11
F2.2238030128273497e-40
sa(dp262
g8
F0.9999999999999999
sg10
F1.5284457353540252e-23
sg11
F2.2238030128273497e-40
sa(dp263
g8
F1.0
sg10
F1.5284457353540252e-23
sg11
F2.2238030128273497e-40
sa(dp264
g8
F0.8207512855319505
sg10
F0.17924871446804963
sg11
F4.655592506255138e-24
sa(dp265
g8
F1.0
sg10
F5.567279313782742e-23
sg11
F2.040395584296583e-36
sa(dp266
g8
F0.9999999999999999
sg10
F1.5284457353540252e-23
sg11
F2.2238030128273497e-40
sa(dp267
g8
F1.0
sg10
F1.5284457353540252e-23
sg11
F2.2238030128273497e-40
sa(dp268
g8
F0.9999999999999999
sg10
F1.5284457353540252e-23
sg11
F2.2238030128273497e-40
sa(dp269
g8
F1.0
sg10
F1.5284457353540252e-23
sg11
F2.2238030128273497e-40
sa(dp270
g8
F0.9999999999999999
sg10
F1.5284457353540252e-23
sg11
F2.2238030128273497e-40
sa(dp271
g8
F1.0
sg10
F1.5284457353540252e-23
sg11
F2.2238030128273497e-40
sa(dp272
g8
F0.9999999999999999
sg10
F1.5284457353540252e-23
sg11
F2.2238030128273497e-40
sa(dp273
g8
F1.0
sg10
F1.5284457353540252e-23
sg11
F2.2238030128273497e-40
sa(dp274
g8
F0.9999999999999999
sg10
F1.5284457353540252e-23
sg11
F2.2238030128273497e-40
sa(dp275
g8
F1.0
sg10
F1.5284457353540252e-23
sg11
F2.2238030128273497e-40
sa(dp276
g8
F0.9266261991066201
sg10
F0.07337380089337973
sg11
F2.1058545503710064e-20
sa(dp277
g8
F0.920516616562824
sg10
F0.07948338343717605
sg11
F6.313604926949125e-22
sa(dp278
g8
F0.9172896749971364
sg10
F0.0827103250028635
sg11
F6.860404437472888e-22
sa(dp279
g8
F0.8579483276043194
sg10
F0.14205167239568067
sg11
F7.387186107280529e-17
sa(dp280
g8
F0.8078764644501596
sg10
F0.1921235355498402
sg11
F1.2771521988814098e-16
sa(dp281
g8
F0.8343031264759283
sg10
F0.16569687352407153
sg11
F3.267881305908476e-16
sa(dp282
g8
F0.9990552328547598
sg10
F0.0009447671452401208
sg11
F1.0195368291378198e-31
sa(dp283
g8
F0.8190714198391918
sg10
F0.18092858016080815
sg11
F1.8920993497546855e-22
sa(dp284
g8
F1.0
sg10
F5.613491093784663e-23
sg11
F2.0637389663493597e-36
sa(dp285
g8
F0.9997221860903528
sg10
F0.0002778139096471338
sg11
F1.2227115303159542e-35
sa(dp286
g8
F1.187380676986297e-29
sg10
F1.0
sg11
F4.605313491079934e-20
sa(dp287
g8
F1.9365539845012533e-45
sg10
F1.0
sg11
F1.8193090381650644e-22
sa(dp288
g8
F9.377816935746936e-19
sg10
F1.0
sg11
F9.01744914818121e-20
sa(dp289
g8
F2.688485089559911e-45
sg10
F1.0
sg11
F1.8193090381650644e-22
sa(dp290
g8
F4.519467037210201e-19
sg10
F7.587738595563715e-20
sg11
F1.0
sa(dp291
g8
F0.9999999959006111
sg10
F4.099388257963857e-09
sg11
F7.976078962665993e-16
sa(dp292
g8
F0.9512743120105682
sg10
F0.04872568798943173
sg11
F3.730075492216399e-20
sa(dp293
g8
F0.8863223624409332
sg10
F0.1136776375590668
sg11
F4.3360646939569625e-17
sa(dp294
g8
F0.9992913709953234
sg10
F0.0007086290046765313
sg11
F6.586079883444232e-32
sa(dp295
g8
F0.9508767838175752
sg10
F0.04912321618242464
sg11
F1.1477679725518136e-18
sa(dp296
g8
F0.738057948794473
sg10
F0.2619420512055271
sg11
F9.089557114073455e-21
sa(dp297
g8
F0.8107278528072365
sg10
F0.18927214719276336
sg11
F2.491711573138953e-21
sa(dp298
g8
F0.83618537256806
sg10
F0.16381462743193984
sg11
F3.215302077122483e-16
sa(dp299
g8
F1.0
sg10
F5.1513894962203586e-23
sg11
F1.8303133303168696e-36
sa(dp300
g8
F0.9999999999999999
sg10
F1.5284457353540252e-23
sg11
F2.2238030128273497e-40
sa(dp301
g8
F1.0
sg10
F1.5284457353540252e-23
sg11
F2.2238030128273497e-40
sa(dp302
g8
F9.295906267077556e-27
sg10
F1.0
sg11
F5.240125470616081e-26
sa(dp303
g8
F1.9037433824812346e-45
sg10
F1.0
sg11
F1.8193090381650644e-22
sa(dp304
g8
F4.519467037210201e-19
sg10
F7.587738595563715e-20
sg11
F1.0
sa(dp305
g8
F0.17917950321488055
sg10
F3.1896446865108736e-28
sg11
F0.8208204967851195
sa(dp306
g8
F0.9903341582929646
sg10
F0.009665841707034273
sg11
F1.1030068294457e-15
sa(dp307
g8
F0.8037379333930436
sg10
F0.19626206660695653
sg11
F1.8737859823515432e-21
sa(dp308
g8
F0.5365826965772821
sg10
F0.4634173034227179
sg11
F3.122414374028397e-20
sa(dp309
g8
F0.17435199528453915
sg10
F6.864141117566706e-20
sg11
F0.825648004715461
sa(dp310
g8
F0.9610681460058398
sg10
F0.03893185399416018
sg11
F1.5584242185771836e-19
sa(dp311
g8
F0.9995860771843461
sg10
F0.00041392281565392374
sg11
F2.0815994583548662e-32
sa(dp312
g8
F0.9999999912139461
sg10
F8.786053936378484e-09
sg11
F2.908133089010665e-47
sa(dp313
g8
F1.0
sg10
F1.5284458978360603e-23
sg11
F2.224623773294398e-40
sa(dp314
g8
F0.9999999999999999
sg10
F1.5284457353540252e-23
sg11
F2.2238030128273497e-40
sa(dp315
g8
F1.0
sg10
F1.5284457353540252e-23
sg11
F2.2238030128273497e-40
sa(dp316
g8
F0.9999999999999999
sg10
F1.5284457353540252e-23
sg11
F2.2238030128273497e-40
sa(dp317
g8
F1.0
sg10
F1.5284457353540252e-23
sg11
F2.2238030128273497e-40
sa(dp318
g8
F0.9577647538620615
sg10
F0.042235246137938345
sg11
F1.9742920119230863e-25
sa(dp319
g8
F1.0
sg10
F2.3439526710044964e-23
sg11
F4.121669097002118e-37
sa(dp320
g8
F0.9999999999999999
sg10
F1.5284457353540252e-23
sg11
F2.2238030128273497e-40
sa(dp321
g8
F0.9997221860903528
sg10
F0.00027781390964713373
sg11
F1.222711530315954e-35
sa(dp322
g8
F0.9983485219997829
sg10
F3.444382097107019e-20
sg11
F0.0016514780002170784
sa(dp323
g8
F1.0
sg10
F1.5261047416736792e-23
sg11
F1.2176010860350103e-38
sa(dp324
g8
F0.9266261991066201
sg10
F0.07337380089337973
sg11
F2.1058545503710064e-20
sa(dp325
g8
F0.920516616562824
sg10
F0.07948338343717605
sg11
F6.313604926949125e-22
sa(dp326
g8
F0.9999999821244091
sg10
F1.787559092062838e-08
sg11
F5.735935123877048e-45
sa(dp327
g8
F0.8207512537127344
sg10
F0.17924874628726567
sg11
F4.659088246729761e-24
sa(dp328
g8
F0.5569494319652336
sg10
F0.44305056803476633
sg11
F2.898660208801321e-20
sa(dp329
g8
F0.30116418469968925
sg10
F0.6988358153003108
sg11
F5.708782370704632e-20
sa(dp330
g8
F0.4381775541592801
sg10
F0.5618224458407198
sg11
F8.804510141054369e-21
sa(dp331
g8
F7.214529890071241e-31
sg10
F1.0
sg11
F1.1892252693828585e-17
sa(dp332
g8
F1.4096737642014755e-17
sg10
F0.9999999999999991
sg11
F9.964422776357642e-16
sa(dp333
g8
F9.261576851409515e-46
sg10
F0.9999999999999999
sg11
F1.2658591015594091e-17
sa(dp334
g8
F2.5927855385662255e-18
sg10
F7.587738595563715e-20
sg11
F1.0
sa(dp335
g8
F0.9999999999999997
sg10
F4.525910739186098e-16
sg11
F5.548546270824102e-44
sa(dp336
g8
F9.295906267077508e-27
sg10
F1.0
sg11
F5.24012547071568e-26
sa(dp337
g8
F2.439857295185237e-48
sg10
F1.0
sg11
F1.2658591015594082e-17
sa(dp338
g8
F2.2938943523134908e-17
sg10
F0.9999999999999974
sg11
F2.6573555918395525e-15
sa(dp339
g8
F2.4514206803569027e-45
sg10
F1.0
sg11
F1.2658591015594106e-17
sa(dp340
g8
F1.4838471245630348e-17
sg10
F0.9999999999999991
sg11
F9.964422776357642e-16
sa(dp341
g8
F3.562337360560279e-16
sg10
F0.9999999999999996
sg11
F9.017449148181212e-20
sa(dp342
g8
F2.7566201928378054e-43
sg10
F1.0
sg11
F1.8193090381650642e-22
sa(dp343
g8
F2.4400233567172235e-48
sg10
F1.0
sg11
F1.2658591015594082e-17
sa(dp344
g8
F5.379985722682723e-18
sg10
F1.0
sg11
F9.01744914818121e-20
sa(dp345
g8
F3.005350586032199e-18
sg10
F1.0
sg11
F9.01744914818121e-20
sasS'N'
p346
I3
sS'states'
p347
(lp348
g8
ag10
ag11
asS'clist'
p349
(lp350
F1.000000000000001
aF2.210325996422655
aF2.0496591247656992
aF2.0496591247656997
aF2.0496591247656992
aF2.0496591247656997
aF2.0496591247656992
aF31.256157453345562
aF9.95598514637371
aF2.497242096717202
aF2.0496591247656997
aF18.95934743606799
aF2.0496591426843382
aF2.0496591247656997
aF2.0496591247656992
aF2.0496591247656997
aF2.0496591247656992
aF2.0496591247656997
aF9.955674723775129
aF2.4972962709857485
aF2.0496591247656992
aF2.0496591247656997
aF2.0496591247656992
aF2.0496591247656997
aF2.0496591247656992
aF2.0496591247656997
aF2.0496591247656992
aF2.0496591247656997
aF2.0496591247656992
aF2.0496591247656997
aF11.712151778011634
aF14.8870952877779
aF14.933368547982832
aF11.821885359268924
aF11.901890239209713
aF15.867548495625337
aF18.18388746029354
aF9.94469345109696
aF2.5024180738330593
aF15.181001991659834
aF53.04412870954947
aF4.397572138793638
aF4.590428141125577
aF4.397572138793638
aF5.70127260847549
aF13.63034367232323
aF14.616274495549746
aF11.776549294110929
aF17.120700788355244
aF14.620526967557405
aF9.415108842052403
aF16.461429352844313
aF15.847413574481612
aF2.45120184113107
aF2.0496591247656992
aF2.0496591247656997
aF53.207692895349545
aF4.397572138793638
aF5.70127260847549
aF6.0402552028072405
aF16.181917598668488
aF9.844458535592711
aF8.098066240351038
aF10.157399331163742
aF12.402028198109182
aF15.793817754726085
aF18.967198391400785
aF2.0496591427741153
aF2.0496591247656992
aF2.0496591247656997
aF2.0496591247656992
aF2.0496591247656997
aF14.35296948651641
aF2.140044427925246
aF2.0496591247656992
aF15.181001991659834
aF31.217284169910425
aF2.049905204912323
aF11.712151778011634
aF14.8870952877779
aF20.596420446704574
aF9.95567451577309
aF8.231203476157024
aF6.559136739284142
aF21.803675736252533
aF7.353338922194052
aF13.192716173653855
aF4.397572138793641
aF5.701272608475491
aF20.44551621933549
aF53.20769289534928
aF4.397572138793637
aF24.792326042929506
aF4.397572138793648
aF13.192716173653855
aF4.590428141125579
aF4.39757213879364
aF4.397572138793637
aF4.590428141125577
aF4.590428141125577
asS'logB'
p351
(dp352
g8
(dp353
g16
F-2.9212348804951955
sg17
F-2.5633371230760758
sg18
F-2.2705196883974508
sg19
F-5.11102215480017
sg20
F-2.6570023729358256
sg21
F-2.394531914401664
sg22
F-2.5567896167969173
sg23
F-3.093728761473657
sg24
F-3.955377711169584
sg25
F-2.5311773915230478
sg26
F-2.3856993883549533
sg27
F-2.744681015196079
sg28
F-2.319990802883572
sg29
F-2.6363994576488694
sg30
F-3.0060044723555492
sg31
F-6.771947206302559
ssg10
(dp354
V11
p355
F-2.2061636400830515
sV10
p356
F-2.7886349913133275
sV13
p357
F-2.2366278495501097
sV12
p358
F-4.803495959222991
sV15
p359
F-2.3946538192158955
sV14
p360
F-3.4340383811510673
sV1
p361
F-4.3946466318475315
sV0
p362
F-2.883896900512308
sV3
p363
F-2.4577642134121223
sV2
p364
F-2.428127950235306
sV5
p365
F-3.4036523078985326
sV4
p366
F-2.347181559984261
sV7
p367
F-3.329045325183329
sV6
p368
F-2.1769737091555577
sV9
p369
F-3.144112388866956
sV8
p370
F-3.626896918534498
ssg11
(dp371
V11
p372
F-3.776462439005156
sV10
p373
F-2.56023877712607
sV13
p374
F-2.2875507466486336
sV12
p375
F-4.0011284607127555
sV15
p376
F-2.352279906055419
sV14
p377
F-3.184664319984376
sV1
p378
F-4.212541507026543
sV0
p379
F-2.2779335809252834
sV3
p380
F-2.523757470272191
sV2
p381
F-2.89618699908023
sV5
p382
F-2.2244950581471348
sV4
p383
F-2.159180925692466
sV7
p384
F-3.3688691655609246
sV6
p385
F-3.3780880383582845
sV9
p386
F-2.504124323723734
sV8
p387
F-4.078634034718041
sssS'logA'
p388
(dp389
g8
(dp390
Vq1
p391
F-0.12159375102178108
sVq3
p392
F-2.1714793139375113
sVq2
p393
F-7.635223578707189
ssg10
(dp394
Vq1
p395
F-0.051018605614936104
sVq3
p396
F-3.3863773220688
sVq2
p397
F-4.140933416759925
ssg11
(dp398
Vq1
p399
F-0.02848274252499949
sVq3
p400
F-3.5815404521278484
sVq2
p401
F-8.301505382807537
sssS'model'
p402
(dp403
VA
p404
(dp405
g8
(dp406
g391
F0.8855080321744565
sg392
F0.11400883724062709
sg393
F0.00048313058491640786
ssg10
(dp407
g395
F0.9502609901778785
sg396
F0.033831014039701346
sg397
F0.01590799578242019
ssg11
(dp408
g399
F0.9719190668704077
sg400
F0.027832790133992855
sg401
F0.0002481429955994003
sssVB
p409
(dp410
Vq1
p411
(dp412
g16
F0.05386712674749742
sg17
F0.077047194979542
sg18
F0.103258503890451
sg19
F0.00602991626464192
sg20
F0.07015821501075101
sg21
F0.09121536553027698
sg22
F0.07755331708317478
sg23
F0.045332604399164866
sg24
F0.01915143347300857
sg25
F0.07956528562270637
sg26
F0.09202459613648334
sg27
F0.06426879844520396
sg28
F0.0982744894421265
sg29
F0.07161867194567796
sg30
F0.0494890190022545
sg31
F0.0011454620270388422
ssVq3
p413
(dp414
g355
F0.1101223079879357
sg356
F0.061505111653083845
sg357
F0.1068181044446883
sg358
F0.008201026421244215
sg359
F0.09120424661582534
sg360
F0.032256413698180074
sg361
F0.012343241263237551
sg362
F0.05591643692155573
sg363
F0.08562617897768209
sg364
F0.08820179627603751
sg365
F0.03325160282102376
sg366
F0.09563833362215457
sg367
F0.03582729215985531
sg368
F0.11338414535406975
sg369
F0.04310516769831538
sg370
F0.026598594085111
ssVq2
p415
(dp416
g372
F0.022903571062053995
sg373
F0.07728628404311588
sg374
F0.10151479306384253
sg375
F0.018294982067217063
sg376
F0.09515197715995265
sg377
F0.04139213798270078
sg378
F0.014808684096303926
sg379
F0.10249578728310807
sg380
F0.08015784944613936
sg381
F0.055233424144602555
sg382
F0.10812200017652181
sg383
F0.11541961957709766
sg384
F0.034428548326521306
sg385
F0.03411261443362269
sg386
F0.08174715069273093
sg387
F0.016930576444468923
sssVpi
p417
(dp418
Vq1
p419
F0.3333333333333333
sVq3
p420
F0.3333333333333333
sVq2
p421
F0.3333333333333333
sssS'pi'
p422
(dp423
g8
F1.3110207765971128e-55
sg10
F0.0
sg11
F1.0
ssS'bwk_scaled'
p424
(lp425
(dp426
g8
F1.0783871179922764
sg10
F2.6721006188433895e-18
sg11
F0.9999999999999997
sa(dp427
g8
F2.210325996422652
sg10
F5.476895415704419e-18
sg11
F2.0496591247656966
sa(dp428
g8
F2.0496591247656966
sg10
F5.0787841623156736e-18
sg11
F1.9006710026189093
sa(dp429
g8
F2.049659124765697
sg10
F5.0787841623156736e-18
sg11
F1.900671002618909
sa(dp430
g8
F2.0496591247656966
sg10
F5.0787841623156736e-18
sg11
F1.9006710026189093
sa(dp431
g8
F2.049659124765697
sg10
F5.080711182784356e-18
sg11
F1.900671002618909
sa(dp432
g8
F2.0496591247656966
sg10
F10.420171035982015
sg11
F9.973526618748222
sa(dp433
g8
F31.256453968738434
sg10
F2.890114625920369e-16
sg11
F28.984446723483845
sa(dp434
g8
F12.130068322779113
sg10
F3.0056704620374375e-17
sg11
F11.248343123165892
sa(dp435
g8
F2.497242096717199
sg10
F6.187835556180654e-18
sg11
F2.3157195176501393
sa(dp436
g8
F2.049659124765697
sg10
F5.0787846995262885e-18
sg11
F1.9006710026189093
sa(dp437
g8
F18.95934760181538
sg10
F4.697875523030927e-17
sg11
F17.58120742123995
sa(dp438
g8
F2.0496591426843356
sg10
F5.0787842067156904e-18
sg11
F1.9006710192350564
sa(dp439
g8
F2.049659124765697
sg10
F5.0787841623156736e-18
sg11
F1.900671002618909
sa(dp440
g8
F2.0496591247656966
sg10
F5.0787841623156736e-18
sg11
F1.9006710026189093
sa(dp441
g8
F2.049659124765697
sg10
F5.0787841623156736e-18
sg11
F1.900671002618909
sa(dp442
g8
F2.0496591247656966
sg10
F5.0787841623156736e-18
sg11
F1.9006710026189093
sa(dp443
g8
F2.049659124765697
sg10
F1.8952085289525168e-17
sg11
F1.9006710026189093
sa(dp444
g8
F12.129953250481456
sg10
F3.0056419486443655e-17
sg11
F11.248236415383742
sa(dp445
g8
F2.4972962709857454
sg10
F6.187969792851411e-18
sg11
F2.315769754033384
sa(dp446
g8
F2.0496591247656966
sg10
F5.0787841623156736e-18
sg11
F1.9006710026189093
sa(dp447
g8
F2.049659124765697
sg10
F5.0787841623156736e-18
sg11
F1.900671002618909
sa(dp448
g8
F2.0496591247656966
sg10
F5.0787841623156736e-18
sg11
F1.9006710026189093
sa(dp449
g8
F2.049659124765697
sg10
F5.078784162315674e-18
sg11
F1.9006710026189095
sa(dp450
g8
F2.049659124765697
sg10
F5.078784162315676e-18
sg11
F1.9006710026189095
sa(dp451
g8
F2.0496591247656974
sg10
F5.078784162315677e-18
sg11
F1.9006710026189098
sa(dp452
g8
F2.0496591247656974
sg10
F5.078784162315677e-18
sg11
F1.90067100261891
sa(dp453
g8
F2.049659124765698
sg10
F5.0787841623156774e-18
sg11
F1.9006710026189102
sa(dp454
g8
F2.049659124765698
sg10
F5.0787841623156774e-18
sg11
F1.9006710026189104
sa(dp455
g8
F2.0496591247656983
sg10
F3.5845247804691695e-15
sg11
F1.9006710026189122
sa(dp456
g8
F12.639564680238438
sg10
F1.136014775567722e-14
sg11
F11.720804588031958
sa(dp457
g8
F16.172543786733335
sg10
F2.716750148298844e-14
sg11
F14.996974200547857
sa(dp458
g8
F16.27988295848794
sg10
F5.1180184787894104e-14
sg11
F15.096510971679228
sa(dp459
g8
F13.77925100953294
sg10
F3.244673148102959e-14
sg11
F12.777648007504881
sa(dp460
g8
F14.732314608657557
sg10
F2.255822550025209e-14
sg11
F13.661434157416453
sa(dp461
g8
F19.0189248872282
sg10
F4.7717666912209e-17
sg11
F17.636454080272504
sa(dp462
g8
F18.201083245751903
sg10
F1.6829589711929525e-16
sg11
F16.8780607094402
sa(dp463
g8
F12.141424069038322
sg10
F3.008493369497665e-17
sg11
F11.25887342909198
sa(dp464
g8
F2.502418073833059
sg10
F0.10146112135122379
sg11
F2.3127431274604255
sa(dp465
g8
F15.134334525072266
sg10
F183.11536415328356
sg11
F7.265596089112181e-07
sa(dp466
g8
F4.384053693109596
sg10
F53.04412870954946
sg11
F2.104668911232675e-07
sa(dp467
g8
F0.501000972788501
sg10
F4.397572138793637
sg11
F0.1275472064462843
sa(dp468
g8
F0.3793951175115218
sg10
F4.590428141125576
sg11
F1.821376207492612e-08
sa(dp469
g8
F0.8650072853861103
sg10
F4.397572138793637
sg11
F4.209077051871108
sa(dp470
g8
F6.14817893714219
sg10
F1.7751501454129093e-14
sg11
F5.70127260847549
sa(dp471
g8
F13.6303437281993
sg10
F2.8447036300558584e-14
sg11
F12.63956468023845
sa(dp472
g8
F15.36494185852394
sg10
F1.3818873240715725e-14
sg11
F14.248076226216556
sa(dp473
g8
F13.286982020490028
sg10
F1.6128753531334039e-16
sg11
F12.32116166708993
sa(dp474
g8
F17.132841616857473
sg10
F4.922783040121e-14
sg11
F15.88746873085347
sa(dp475
g8
F15.375837560003283
sg10
F3.3335829111580544e-14
sg11
F14.258179927658778
sa(dp476
g8
F12.756598390994665
sg10
F1.0453470012929792e-14
sg11
F11.829331209690901
sa(dp477
g8
F20.304506988189377
sg10
F3.1090015108663735e-14
sg11
F18.828588221632312
sa(dp478
g8
F18.95203395607321
sg10
F4.6960632983680394e-17
sg11
F17.574425398698928
sa(dp479
g8
F2.451201841131069
sg10
F6.0737538934912386e-18
sg11
F2.2730258923109874
sa(dp480
g8
F2.049659124765699
sg10
F5.083370379066669e-18
sg11
F1.9006710026189113
sa(dp481
g8
F2.0496591247656992
sg10
F24.79950977691101
sg11
F9.839874555594079e-08
sa(dp482
g8
F4.397572138793637
sg10
F53.207692895349545
sg11
F2.1111587615746922e-07
sa(dp483
g8
F0.20992589045796586
sg10
F4.397572138793638
sg11
F3.6016130122896977
sa(dp484
g8
F1.4915185974010419
sg10
F5.573750603419352
sg11
F5.701272608475491
sa(dp485
g8
F8.177310670378768
sg10
F26.215020607727933
sg11
F5.573750603419352
sa(dp486
g8
F15.289660665476298
sg10
F107.59997985297863
sg11
F5.9316464512298515
sa(dp487
g8
F4.794894536292378
sg10
F30.52357500215554
sg11
F2.1069857125769205
sa(dp488
g8
F2.79964876785864
sg10
F14.233010088981588
sg11
F13.622934258678601
sa(dp489
g8
F10.805924555812929
sg10
F1.001544117389818e-16
sg11
F10.020450333208002
sa(dp490
g8
F12.904421241773033
sg10
F3.2082959690952116e-17
sg11
F11.966408932812802
sa(dp491
g8
F15.800357883349506
sg10
F3.9151200751085024e-17
sg11
F14.651842200012878
sa(dp492
g8
F18.967198558047624
sg10
F4.699820886125189e-17
sg11
F17.58848769759086
sa(dp493
g8
F2.049659142774116
sg10
F5.0787842069381546e-18
sg11
F1.9006710193183105
sa(dp494
g8
F2.0496591247657
sg10
F5.078784162315682e-18
sg11
F1.9006710026189122
sa(dp495
g8
F2.0496591247657
sg10
F5.078784162315681e-18
sg11
F1.9006710026189122
sa(dp496
g8
F2.0496591247656997
sg10
F5.0787841623156805e-18
sg11
F1.9006710026189118
sa(dp497
g8
F2.0496591247656997
sg10
F7.805043443276195e-18
sg11
F1.9006710026189122
sa(dp498
g8
F14.985902778986107
sg10
F3.713308460528406e-17
sg11
F13.896589201553715
sa(dp499
g8
F2.1400444279252464
sg10
F5.302753741888273e-18
sg11
F1.984486268631941
sa(dp500
g8
F2.0496591247656997
sg10
F0.03498628577209691
sg11
F1.897989602219793
sa(dp501
g8
F15.163797876075979
sg10
F77.09055887126357
sg11
F73.78619202139276
sa(dp502
g8
F31.2210320876851
sg10
F7.736158729360723e-17
sg11
F28.951599631319684
sa(dp503
g8
F2.0499052049123234
sg10
F7.994868263269525e-07
sg11
F1.900899134117883
sa(dp504
g8
F12.63956427281296
sg10
F5.145312444216094e-06
sg11
F11.720803815877604
sa(dp505
g8
F16.172542721303028
sg10
F1.2339010579447195e-05
sg11
F14.996972266882931
sa(dp506
g8
F20.596418159236887
sg10
F148.56240800046186
sg11
F7.713239143935665
sa(dp507
g8
F4.898677319653107
sg10
F33.1108534205425
sg11
F2.0049317830779385
sa(dp508
g8
F2.6342846474141908
sg10
F15.266970919703635
sg11
F1.2727174464672102
sa(dp509
g8
F2.0225648600746293
sg10
F8.514178168788652
sg11
F1.2230070614427226
sa(dp510
g8
F3.013282642298084
sg10
F36.45871230261757
sg11
F1.446597770739772e-07
sa(dp511
g8
F1.2420920007657656
sg10
F7.3533389221940535
sg11
F0.5882345923780811
sa(dp512
g8
F1.0903671616504755
sg10
F13.192716173653869
sg11
F5.2345660729264585e-08
sa(dp513
g8
F0.8650073768715574
sg10
F4.397572138793642
sg11
F4.2090771367065525
sa(dp514
g8
F6.1481795874684755
sg10
F7.868515085638694e-06
sg11
F5.701272608475492
sa(dp515
g8
F20.445516219335392
sg10
F247.37712395633656
sg11
F9.815354777376546e-07
sa(dp516
g8
F4.397572138793617
sg10
F53.2076928953493
sg11
F2.1111587622199402e-07
sa(dp517
g8
F0.9499150195498431
sg10
F4.397572138793638
sg11
F0.5438300414982487
sa(dp518
g8
F2.0490653950493702
sg10
F24.792326042929574
sg11
F9.837024218012294e-08
sa(dp519
g8
F0.8863822523142325
sg10
F4.397572138793649
sg11
F0.4849154215295906
sa(dp520
g8
F1.5030028907124064
sg10
F13.192716173653869
sg11
F0.38264161229879645
sa(dp521
g8
F0.3793951175115222
sg10
F4.590428141125582
sg11
F1.821376207492552e-08
sa(dp522
g8
F0.36345572723722236
sg10
F4.397572138793641
sg11
F1.744855386314869e-08
sa(dp523
g8
F1.1307987230264371
sg10
F4.397572138793637
sg11
F0.7115654497376944
sa(dp524
g8
F2.1165848727977767
sg10
F4.590428141125577
sg11
F1.6109148059576346
sa(dp525
g8
F4.590428141125577
sg10
F4.590428141125577
sg11
F4.590428141125577
sasb.