ccopy_reg
_reconstructor
p0
(cmyhmm_scaled
MyHmmScaled
p1
c__builtin__
object
p2
Ntp3
Rp4
(dp5
S'A'
p6
(dp7
Vq1
p8
(dp9
g8
F0.8288209152897628
sVq3
p10
F0.16919452122561518
sVq2
p11
F0.0019845634846223
ssg10
(dp12
g8
F0.2708621614990146
sg10
F0.7291378343991936
sg11
F4.101791468431967e-09
ssg11
(dp13
g8
F1.0
sg10
F1.3008673499663804e-31
sg11
F1.0979200809169035e-44
sssS'symbols'
p14
(lp15
V11
p16
aV10
p17
aV13
p18
aV12
p19
aV15
p20
aV14
p21
aV1
p22
aV0
p23
aV3
p24
aV2
p25
aV5
p26
aV4
p27
aV7
p28
aV6
p29
aV9
p30
aV8
p31
asS'B'
p32
(dp33
g8
(dp34
g16
F0.016753502586639567
sg17
F0.016753502586639567
sg18
F0.01675350258663959
sg19
F0.05026050775991871
sg20
I0
sg21
F0.016753502586639588
sg22
F0.31428138503837
sg23
F0.07321738994746746
sg24
F1.4388464428255765e-05
sg25
F0.11560199193079575
sg26
I0
sg27
F0.06680885838084638
sg28
F0.05026050775991872
sg29
I0
sg30
F0.24841517513938322
sg31
F0.01412578523231337
ssg10
(dp35
g16
F4.9113441377595937e-23
sg17
F1.1128209616302913e-29
sg18
F4.7219753499427874e-27
sg19
F4.962492375324613e-26
sg20
I0
sg21
F5.428303812054713e-28
sg22
F0.08713724935476012
sg23
F0.07070576401744436
sg24
F0.21507385186985897
sg25
F0.08334553330184682
sg26
I0
sg27
F0.0003292413073995257
sg28
F3.4003174581476126e-22
sg29
I0
sg30
F0.055223104587958045
sg31
F0.4881852555607321
ssg11
(dp36
g16
F2.462278009152844e-36
sg17
F3.15643190727081e-37
sg18
F4.093175316013442e-38
sg19
F8.602472044079668e-40
sg20
I0
sg21
F1.0006487810314251e-34
sg22
F2.466311229527736e-37
sg23
F1.30254587231259e-33
sg24
F6.368043839100596e-41
sg25
F1.7568582115602227e-36
sg26
I0
sg27
F3.158281850630732e-40
sg28
F1.88179666713358e-36
sg29
I0
sg30
F1.0
sg31
F1.9348287019494758e-34
sssS'bwk'
p37
(lp38
(dp39
a(dp40
a(dp41
a(dp42
a(dp43
a(dp44
a(dp45
a(dp46
a(dp47
a(dp48
a(dp49
a(dp50
a(dp51
a(dp52
a(dp53
a(dp54
a(dp55
a(dp56
a(dp57
a(dp58
a(dp59
a(dp60
a(dp61
a(dp62
a(dp63
a(dp64
a(dp65
a(dp66
a(dp67
a(dp68
a(dp69
a(dp70
a(dp71
a(dp72
a(dp73
a(dp74
a(dp75
a(dp76
a(dp77
a(dp78
a(dp79
a(dp80
a(dp81
a(dp82
a(dp83
a(dp84
a(dp85
a(dp86
a(dp87
a(dp88
a(dp89
a(dp90
a(dp91
a(dp92
a(dp93
a(dp94
a(dp95
a(dp96
a(dp97
a(dp98
a(dp99
a(dp100
a(dp101
a(dp102
a(dp103
a(dp104
a(dp105
a(dp106
a(dp107
a(dp108
a(dp109
a(dp110
a(dp111
a(dp112
a(dp113
a(dp114
a(dp115
a(dp116
a(dp117
a(dp118
a(dp119
a(dp120
a(dp121
a(dp122
a(dp123
a(dp124
a(dp125
a(dp126
a(dp127
a(dp128
a(dp129
a(dp130
a(dp131
a(dp132
a(dp133
a(dp134
a(dp135
a(dp136
a(dp137
a(dp138
g8
I1
sg10
I1
sg11
I1
sasS'fwd'
p139
(lp140
(dp141
g8
F2.3413820760595184e-27
sg10
F6.207043195335412e-70
sg11
F1.0
sa(dp142
a(dp143
a(dp144
a(dp145
a(dp146
a(dp147
a(dp148
a(dp149
a(dp150
a(dp151
a(dp152
a(dp153
a(dp154
a(dp155
a(dp156
a(dp157
a(dp158
a(dp159
a(dp160
a(dp161
a(dp162
a(dp163
a(dp164
a(dp165
a(dp166
a(dp167
a(dp168
a(dp169
a(dp170
a(dp171
a(dp172
a(dp173
a(dp174
a(dp175
a(dp176
a(dp177
a(dp178
a(dp179
a(dp180
a(dp181
a(dp182
a(dp183
a(dp184
a(dp185
a(dp186
a(dp187
a(dp188
a(dp189
a(dp190
a(dp191
a(dp192
a(dp193
a(dp194
a(dp195
a(dp196
a(dp197
a(dp198
a(dp199
a(dp200
a(dp201
a(dp202
a(dp203
a(dp204
a(dp205
a(dp206
a(dp207
a(dp208
a(dp209
a(dp210
a(dp211
a(dp212
a(dp213
a(dp214
a(dp215
a(dp216
a(dp217
a(dp218
a(dp219
a(dp220
a(dp221
a(dp222
a(dp223
a(dp224
a(dp225
a(dp226
a(dp227
a(dp228
a(dp229
a(dp230
a(dp231
a(dp232
a(dp233
a(dp234
a(dp235
a(dp236
a(dp237
a(dp238
a(dp239
a(dp240
asS'logpi'
p241
(dp242
g8
F-1.0986122886681098
sg10
F-1.0986122886681098
sg11
F-1.0986122886681098
ssS'M'
p243
I16
sS'fwd_scaled'
p244
(lp245
(dp246
g8
F2.3413820760595184e-27
sg10
F6.207043195335412e-70
sg11
F1.0
sa(dp247
g8
F1.0
sg10
F3.236225325370861e-51
sg11
F8.104190284549643e-67
sa(dp248
g8
F0.9999999999999999
sg10
F1.2231689650966858e-27
sg11
F2.923966040288757e-37
sa(dp249
g8
F1.0
sg10
F3.1450493783226532e-21
sg11
F2.4320721806500785e-36
sa(dp250
g8
F0.8362445116570494
sg10
F0.16375548834295073
sg11
F3.245644383983974e-34
sa(dp251
g8
F1.0
sg10
F2.8577865862275458e-24
sg11
F3.919380537839439e-40
sa(dp252
g8
F0.9531115052298219
sg10
F0.04688849477017812
sg11
F1.9974793311936324e-38
sa(dp253
g8
F0.9417981594837753
sg10
F0.049213401044616745
sg11
F0.008988439471608078
sa(dp254
g8
F0.8114139993789923
sg10
F0.18858600062100775
sg11
F3.0599087601831564e-34
sa(dp255
g8
F0.7837918897598123
sg10
F0.2162081102401877
sg11
F2.454476713052502e-37
sa(dp256
g8
F0.911065405865941
sg10
F0.08893459413405885
sg11
F1.746358624132208e-38
sa(dp257
g8
F0.934969607927594
sg10
F0.056248648935528195
sg11
F0.00878174313687775
sa(dp258
g8
F0.00038817594572415604
sg10
F0.9996118240542758
sg11
F5.797187511274924e-41
sa(dp259
g8
F0.6450892394428981
sg10
F0.354903529728303
sg11
F7.230828798751211e-06
sa(dp260
g8
F0.00016812086500878176
sg10
F0.9998318791349913
sg11
F2.1838116599784845e-41
sa(dp261
g8
F0.011113271366179728
sg10
F0.9888867286338201
sg11
F1.727032147027466e-39
sa(dp262
g8
F3.8851451003731104e-05
sg10
F0.9999611485489963
sg11
F1.9247577098574065e-43
sa(dp263
g8
F0.9845116458421983
sg10
F0.015488354157801747
sg11
F1.9453900500826115e-44
sa(dp264
g8
F1.0
sg10
F1.7665698972490675e-24
sg11
F4.156951252622972e-40
sa(dp265
g8
F0.9987458139323397
sg10
F0.001254186067660279
sg11
F1.594861328468511e-40
sa(dp266
g8
F0.12284934362427206
sg10
F0.877150656375728
sg11
F3.7741984637731566e-35
sa(dp267
g8
F0.3580910826787364
sg10
F0.6419089173212637
sg11
F4.0686784387824375e-35
sa(dp268
g8
F8.824333320702289e-05
sg10
F0.9999117566667929
sg11
F8.463069507301001e-42
sa(dp269
g8
F0.011110884753574543
sg10
F0.9888891152464254
sg11
F9.209238535807392e-40
sa(dp270
g8
F0.011442890300405724
sg10
F0.9885571096995943
sg11
F1.1305995479203512e-37
sa(dp271
g8
F0.651762713148361
sg10
F0.34802805380560736
sg11
F0.0002092330460317405
sa(dp272
g8
F0.9965417765603022
sg10
F0.003458223439697677
sg11
F1.3473734799172299e-40
sa(dp273
g8
F1.0
sg10
F5.2228201030651665e-21
sg11
F6.489474917851982e-37
sa(dp274
g8
F0.8696635055962668
sg10
F0.13033649440373335
sg11
F2.9375612339580533e-37
sa(dp275
g8
F0.8108557611575938
sg10
F0.18914423884240616
sg11
F2.6067288538873373e-37
sa(dp276
g8
F0.9174108019388596
sg10
F0.0743389498994786
sg11
F0.008250248161661942
sa(dp277
g8
F0.79783296968579
sg10
F0.2021670303142101
sg11
F2.9824052678520047e-34
sa(dp278
g8
F0.9140885596495787
sg10
F0.08591144035042123
sg11
F1.7644144373274428e-38
sa(dp279
g8
F0.09407219879577355
sg10
F0.9059278012042266
sg11
F2.802214361385762e-35
sa(dp280
g8
F0.40452925543909046
sg10
F0.5954707445609095
sg11
F3.2087405269096523e-38
sa(dp281
g8
F0.028295351534833292
sg10
F0.9717046484651668
sg11
F5.805189769471117e-36
sa(dp282
g8
F0.011971434485058772
sg10
F0.9880285655149411
sg11
F2.9158237178432355e-37
sa(dp283
g8
F0.011469038397784405
sg10
F0.9885309616022155
sg11
F1.218918021178295e-37
sa(dp284
g8
F0.2959758486791145
sg10
F0.7040241513208856
sg11
F3.809234552392321e-36
sa(dp285
g8
F0.5207227961621221
sg10
F0.47927720383787786
sg11
F9.745394158699862e-38
sa(dp286
g8
F0.8534559136394039
sg10
F0.14022971594560185
sg11
F0.006314370414994122
sa(dp287
g8
F0.927295778311439
sg10
F0.07270422168856105
sg11
F1.8255725762686097e-38
sa(dp288
g8
F1.0
sg10
F6.688588013358995e-21
sg11
F6.329183768781733e-37
sa(dp289
g8
F0.8696635055962668
sg10
F0.13033649440373335
sg11
F2.9375612339580533e-37
sa(dp290
g8
F0.9980492855145298
sg10
F0.0019507144854702032
sg11
F1.5168286167030562e-40
sa(dp291
g8
F0.9487773477434297
sg10
F0.042022956763711566
sg11
F0.009199695492858694
sa(dp292
g8
F0.9431259298024118
sg10
F0.04796105019208872
sg11
F0.008913020005499338
sa(dp293
g8
F0.9450566630425088
sg10
F0.054943336957491304
sg11
F1.9254955352079475e-38
sa(dp294
g8
F0.9405129571054731
sg10
F0.0505375057609616
sg11
F0.008949537133565206
sa(dp295
g8
F0.9417629089805912
sg10
F0.04936268196303676
sg11
F0.008874409056372068
sa(dp296
g8
F0.8489024721304588
sg10
F0.1510975278695412
sg11
F2.7863162295917782e-37
sa(dp297
g8
F0.07837790144776807
sg10
F0.9216220985522319
sg11
F2.2721198154774047e-35
sa(dp298
g8
F4.624989748200611e-05
sg10
F0.999953750102518
sg11
F1.4313341090793413e-42
sa(dp299
g8
F0.6186975201240319
sg10
F0.3813024798759681
sg11
F1.8879386651999264e-42
sa(dp300
g8
F0.8717904598049335
sg10
F0.12820954019506653
sg11
F1.5117886551254745e-38
sa(dp301
g8
F0.00030536384621784814
sg10
F0.9996946361537821
sg11
F4.4819561198423674e-41
sa(dp302
g8
F0.011117372620025724
sg10
F0.9888826273799743
sg11
F3.112281990928708e-39
sa(dp303
g8
F0.0114430873118594
sg10
F0.9885569126881406
sg11
F1.1312649787756394e-37
sa(dp304
g8
F0.6259330146257641
sg10
F0.3740669853742359
sg11
F4.34028499312517e-40
sa(dp305
g8
F0.634690834931962
sg10
F0.3653091650680382
sg11
F2.0490287907803467e-34
sa(dp306
g8
F0.6985526136654931
sg10
F0.3014473863345068
sg11
F1.9749495205889917e-37
sa(dp307
g8
F0.053929550115864366
sg10
F0.9460704498841356
sg11
F1.4463461341127842e-35
sa(dp308
g8
F4.346907275552614e-05
sg10
F0.9999565309272445
sg11
F9.656893403711117e-43
sa(dp309
g8
F0.011109547092835835
sg10
F0.9888904529071642
sg11
F4.691121883992804e-40
sa(dp310
g8
F0.01144284968104917
sg10
F0.9885571503189509
sg11
F1.1304623509570813e-37
sa(dp311
g8
F0.011452973221847029
sg10
F0.988547026778153
sg11
F1.1646558777090677e-37
sa(dp312
g8
F0.6259392258207723
sg10
F0.3740607741792277
sg11
F4.3439946349368126e-40
sa(dp313
g8
F0.8736717940578774
sg10
F0.12632820594212266
sg11
F1.52302494089195e-38
sa(dp314
g8
F0.928638072466018
sg10
F0.06277183634003168
sg11
F0.008590091193950228
sa(dp315
g8
F0.10162086320778398
sg10
F0.898379136792216
sg11
F3.020519319023579e-35
sa(dp316
g8
F0.40902338876839944
sg10
F0.5909766112316005
sg11
F3.461565191395965e-38
sa(dp317
g8
F0.5162205155049345
sg10
F0.4837794844950656
sg11
F1.3456755507818706e-34
sa(dp318
g8
F0.8522695909103164
sg10
F0.14145194798252608
sg11
F0.006278461107157427
sa(dp319
g8
F0.9270490346674155
sg10
F0.07295096533258445
sg11
F1.824188531772167e-38
sa(dp320
g8
F0.837040652485775
sg10
F0.162959347514225
sg11
F2.7540361516366854e-37
sa(dp321
g8
F0.9222968872874361
sg10
F0.07770311271256404
sg11
F1.8134387480577093e-38
sa(dp322
g8
F0.9368230326026913
sg10
F0.05433912215973071
sg11
F0.008837845237577947
sa(dp323
g8
F0.9438870866760467
sg10
F0.05611291332395324
sg11
F1.9186372188117103e-38
sa(dp324
g8
F0.9430585909111359
sg10
F0.05694140908886399
sg11
F1.9374382099022494e-38
sa(dp325
g8
F0.10261258557592938
sg10
F0.8973874144240707
sg11
F3.090676619473653e-35
sa(dp326
g8
F4.9117669566899935e-05
sg10
F0.9999508823304332
sg11
F1.9115380775145007e-42
sa(dp327
g8
F0.6186993598316427
sg10
F0.3813006401683573
sg11
F1.997815367912867e-42
sa(dp328
g8
F0.8776296526695623
sg10
F0.11532425171528203
sg11
F0.007046095615155829
sa(dp329
g8
F0.08699315523298659
sg10
F0.9130068447670134
sg11
F2.536391777059914e-35
sa(dp330
g8
F0.6703510057657683
sg10
F0.3296489942342316
sg11
F3.086897019836422e-39
sa(dp331
g8
F1.0
sg10
F1.3628708791225952e-20
sg11
F5.5702369216321015e-37
sa(dp332
g8
F0.9531115052298219
sg10
F0.04688849477017812
sg11
F1.9974793311936324e-38
sa(dp333
g8
F0.9417981594837753
sg10
F0.049213401044616745
sg11
F0.008988439471608078
sa(dp334
g8
F0.9448326837487968
sg10
F0.055167316251203205
sg11
F1.9239413004206696e-38
sa(dp335
g8
F0.9404770670027127
sg10
F0.050574482236524936
sg11
F0.008948450760762328
sa(dp336
g8
F0.944582057800991
sg10
F0.055417942199009
sg11
F1.9225354791477477e-38
sa(dp337
g8
F0.10309447072013657
sg10
F0.8969055292798633
sg11
F3.1069528936536473e-35
sa(dp338
g8
F0.6790895873792943
sg10
F0.3209104126207058
sg11
F3.608809593583441e-39
sa(dp339
g8
F0.887008162982744
sg10
F0.11299183701725585
sg11
F1.6026765243851261e-38
sa(dp340
g8
F0.9322857367713553
sg10
F0.06771426322864477
sg11
F1.8730972415465666e-38
sa(dp341
g8
F1.0
sg10
F4.491239911247655e-25
sg11
F3.8925366563333016e-38
sa(dp342
g8
F0.9490731779084075
sg10
F0.04171817198950225
sg11
F0.00920865010209031
sa(dp343
g8
F1.0
sg10
F4.6314510865287496e-26
sg11
F9.507244285654402e-35
sa(dp344
g8
F0.9531115052298219
sg10
F0.04688849477017812
sg11
F1.9974793311936324e-38
sa(dp345
g8
F0.944749138377756
sg10
F0.05525086162224407
sg11
F1.9475350198694346e-38
sasS'N'
p346
I3
sS'states'
p347
(lp348
g8
ag10
ag11
asS'clist'
p349
(lp350
F1.0
aF20.126459366729076
aF72.90074125386538
aF72.90074125386539
aF13.738601760045754
aF27.252976064950325
aF3.616524714775784
aF4.741820268774474
aF13.752833086549591
aF9.41406310665473
aF4.034051599377299
aF4.8465825312614195
aF22.89753166701918
aF9.293868753405656
aF12.501541126674754
aF2.765759500394847
aF6.394200413103966
aF53.21948499888034
aF24.55184274838285
aF18.269739921541916
aF10.357219924019573
aF14.018861820870443
aF8.727722747625013
aF2.7655973515491556
aF2.7881541402231935
aF9.19148566406681
aF23.681391642763543
aF24.355974943325027
aF9.142141079673383
aF9.328362346318935
aF5.115966195837262
aF13.760819655843529
aF4.004031026718951
aF8.402071943107423
aF10.615040440995227
aF3.9331271996512895
aF2.824063960381025
aF2.7899306680927687
aF14.055269421870129
aF10.247100664763213
aF6.097149209574041
aF3.872816666818315
aF25.528235335795202
aF9.142141079673383
aF19.979955122558046
aF4.634746968325874
aF4.723512652555057
aF3.6964250699834005
aF4.7615375847816495
aF4.744376616175231
aF9.207669970632809
aF7.335785695647588
aF6.743740445345594
aF6.93732810631091
aF4.4240603307420905
aF18.985593956259816
aF2.7660381436801353
aF2.7881675253782587
aF6.865478076853604
aF13.856738413000668
aF9.683982759478475
aF5.674740271298711
aF6.612360220131239
aF2.7655064695416454
aF2.7881513805035123
aF2.7888391839832725
aF6.865416398340243
aF4.405378273633113
aF4.9437196729398165
aF8.914735913997418
aF10.60080926771956
aF13.926177419219831
aF6.115349533920482
aF3.8752672074698795
aF9.245444974182767
aF3.922520553255934
aF4.818147663234894
aF3.708039674198968
aF3.7163523339877718
aF8.982314356624919
aF6.879228503542529
aF6.937309837615384
aF5.726280574735085
aF7.920969005370192
aF6.424397792557953
aF31.078656142334683
aF3.616524714775784
aF4.741820268774474
aF3.6986484532986452
aF4.76208820350879
aF3.701137551147005
aF9.015054114941567
aF6.337621782128179
aF4.272945238147317
aF3.823329111745976
aF76.32000280193861
aF4.630208401524413
aF74.82311408307218
aF3.616524714775784
aF3.69956483104011
asS'logB'
p351
(dp352
g8
(dp353
g16
F-2.9212348804951955
sg17
F-2.5633371230760758
sg18
F-2.2705196883974508
sg19
F-5.11102215480017
sg20
F-2.6570023729358256
sg21
F-2.394531914401664
sg22
F-2.5567896167969173
sg23
F-3.093728761473657
sg24
F-3.955377711169584
sg25
F-2.5311773915230478
sg26
F-2.3856993883549533
sg27
F-2.744681015196079
sg28
F-2.319990802883572
sg29
F-2.6363994576488694
sg30
F-3.0060044723555492
sg31
F-6.771947206302559
ssg10
(dp354
V11
p355
F-2.2061636400830515
sV10
p356
F-2.7886349913133275
sV13
p357
F-2.2366278495501097
sV12
p358
F-4.803495959222991
sV15
p359
F-2.3946538192158955
sV14
p360
F-3.4340383811510673
sV1
p361
F-4.3946466318475315
sV0
p362
F-2.883896900512308
sV3
p363
F-2.4577642134121223
sV2
p364
F-2.428127950235306
sV5
p365
F-3.4036523078985326
sV4
p366
F-2.347181559984261
sV7
p367
F-3.329045325183329
sV6
p368
F-2.1769737091555577
sV9
p369
F-3.144112388866956
sV8
p370
F-3.626896918534498
ssg11
(dp371
V11
p372
F-3.776462439005156
sV10
p373
F-2.56023877712607
sV13
p374
F-2.2875507466486336
sV12
p375
F-4.0011284607127555
sV15
p376
F-2.352279906055419
sV14
p377
F-3.184664319984376
sV1
p378
F-4.212541507026543
sV0
p379
F-2.2779335809252834
sV3
p380
F-2.523757470272191
sV2
p381
F-2.89618699908023
sV5
p382
F-2.2244950581471348
sV4
p383
F-2.159180925692466
sV7
p384
F-3.3688691655609246
sV6
p385
F-3.3780880383582845
sV9
p386
F-2.504124323723734
sV8
p387
F-4.078634034718041
sssS'logA'
p388
(dp389
g8
(dp390
Vq1
p391
F-0.12159375102178108
sVq3
p392
F-2.1714793139375113
sVq2
p393
F-7.635223578707189
ssg10
(dp394
Vq1
p395
F-0.051018605614936104
sVq3
p396
F-3.3863773220688
sVq2
p397
F-4.140933416759925
ssg11
(dp398
Vq1
p399
F-0.02848274252499949
sVq3
p400
F-3.5815404521278484
sVq2
p401
F-8.301505382807537
sssS'model'
p402
(dp403
VA
p404
(dp405
g8
(dp406
g391
F0.8855080321744565
sg392
F0.11400883724062709
sg393
F0.00048313058491640786
ssg10
(dp407
g395
F0.9502609901778785
sg396
F0.033831014039701346
sg397
F0.01590799578242019
ssg11
(dp408
g399
F0.9719190668704077
sg400
F0.027832790133992855
sg401
F0.0002481429955994003
sssVB
p409
(dp410
Vq1
p411
(dp412
g16
F0.05386712674749742
sg17
F0.077047194979542
sg18
F0.103258503890451
sg19
F0.00602991626464192
sg20
F0.07015821501075101
sg21
F0.09121536553027698
sg22
F0.07755331708317478
sg23
F0.045332604399164866
sg24
F0.01915143347300857
sg25
F0.07956528562270637
sg26
F0.09202459613648334
sg27
F0.06426879844520396
sg28
F0.0982744894421265
sg29
F0.07161867194567796
sg30
F0.0494890190022545
sg31
F0.0011454620270388422
ssVq3
p413
(dp414
g355
F0.1101223079879357
sg356
F0.061505111653083845
sg357
F0.1068181044446883
sg358
F0.008201026421244215
sg359
F0.09120424661582534
sg360
F0.032256413698180074
sg361
F0.012343241263237551
sg362
F0.05591643692155573
sg363
F0.08562617897768209
sg364
F0.08820179627603751
sg365
F0.03325160282102376
sg366
F0.09563833362215457
sg367
F0.03582729215985531
sg368
F0.11338414535406975
sg369
F0.04310516769831538
sg370
F0.026598594085111
ssVq2
p415
(dp416
g372
F0.022903571062053995
sg373
F0.07728628404311588
sg374
F0.10151479306384253
sg375
F0.018294982067217063
sg376
F0.09515197715995265
sg377
F0.04139213798270078
sg378
F0.014808684096303926
sg379
F0.10249578728310807
sg380
F0.08015784944613936
sg381
F0.055233424144602555
sg382
F0.10812200017652181
sg383
F0.11541961957709766
sg384
F0.034428548326521306
sg385
F0.03411261443362269
sg386
F0.08174715069273093
sg387
F0.016930576444468923
sssVpi
p417
(dp418
Vq1
p419
F0.3333333333333333
sVq3
p420
F0.3333333333333333
sVq2
p421
F0.3333333333333333
sssS'pi'
p422
(dp423
g8
F1.9392284799285646e-27
sg10
F1.739546535293052e-70
sg11
F1.0
ssS'bwk_scaled'
p424
(lp425
(dp426
g8
F0.8282409350259615
sg10
F0.2802536538815
sg11
F0.9999999999999989
sa(dp427
g8
F20.126459366729055
sg10
F6.810233035688527
sg11
F24.30024708462177
sa(dp428
g8
F72.9007412538653
sg10
F24.667579496569008
sg11
F88.01876141461193
sa(dp429
g8
F72.9007412538653
sg10
F42.34094922137099
sg11
F82.54899279973847
sa(dp430
g8
F15.407982627853936
sg10
F5.213631985315224
sg11
F18.60326141374665
sa(dp431
g8
F27.252976064950293
sg10
F11.572548016710403
sg11
F32.177062450296425
sa(dp432
g8
F3.7105379281756323
sg10
F1.7054999362192969
sg11
F4.292010589123851
sa(dp433
g8
F4.795422510131396
sg10
F3.6385642726180865
sg11
F5.1659748232557785
sa(dp434
g8
F14.824264056776705
sg10
F9.142872189411454
sg11
F16.62129444411745
sa(dp435
g8
F10.52267204921733
sg10
F5.395163458854792
sg11
F12.137054787036988
sa(dp436
g8
F4.051731181610055
sg10
F3.8529380977161622
sg11
F4.123803133092421
sa(dp437
g8
F4.130608224482865
sg10
F17.503845088214923
sg11
F0.002475786977992315
sa(dp438
g8
F24.073770779226717
sg10
F22.89707490198417
sg11
F24.50073433726282
sa(dp439
g8
F4.323624439760366
sg10
F18.328206407442085
sg11
F0.0005993512901736281
sa(dp440
g8
F3.0391446334314325
sg10
F12.5031322204543
sg11
F0.11804582236817508
sa(dp441
g8
F0.6587999961945359
sg10
F2.7894378571264364
sg11
F0.0011035331289298532
sa(dp442
g8
F18.803444908740907
sg10
F6.393718277217763
sg11
F22.69322566696631
sa(dp443
g8
F53.77049962875983
sg10
F18.194438785522507
sg11
F64.92132585438355
sa(dp444
g8
F24.55184274838282
sg10
F8.78581262555065
sg11
F29.49537360757061
sa(dp445
g8
F18.20136219872296
sg10
F72.72096226611747
sg11
F1.3754727775137319
sa(dp446
g8
F5.252743020879538
sg10
F11.072127485836853
sg11
F3.465396602090185
sa(dp447
g8
F4.552769810395896
sg10
F19.299553590838265
sg11
F0.0006370736225432322
sa(dp448
g8
F2.141624508120643
sg10
F8.728303978176209
sg11
F0.10868777075865173
sa(dp449
g8
F0.8688529089722385
sg10
F2.7869086478143603
sg11
F0.27749707672876356
sa(dp450
g8
F7.0006115742057515
sg10
F2.7393934891295593
sg11
F8.232924236495293
sa(dp451
g8
F11.931495158552172
sg10
F4.057055451275735
sg11
F14.39970779245211
sa(dp452
g8
F23.735700277682657
sg10
F8.031499590210652
sg11
F28.65796566422863
sa(dp453
g8
F24.355974943325
sg10
F16.157151196026803
sg11
F26.957003956486833
sa(dp454
g8
F9.636503161576822
sg10
F5.843535703267683
sg11
F10.835543452944005
sa(dp455
g8
F10.319440315973303
sg10
F5.079640384873422
sg11
F11.841450069604495
sa(dp456
g8
F5.129287130444114
sg10
F4.942183151475291
sg11
F5.200579375255842
sa(dp457
g8
F13.832160156075872
sg10
F13.479281152405102
sg11
F13.977468888754233
sa(dp458
g8
F3.19218937451006
sg10
F12.641939592845299
sg11
F0.27589629195461696
sa(dp459
g8
F4.807451918646768
sg10
F8.775339889059433
sg11
F3.591967068693365
sa(dp460
g8
F3.7221966587467974
sg10
F15.29764993702849
sg11
F0.14939830644492144
sa(dp461
g8
F0.9819526380583739
sg10
F4.019063313873675
sg11
F0.04455326141160139
sa(dp462
g8
F0.7903292017178589
sg10
F2.8487056795307457
sg11
F0.1553402967614874
sa(dp463
g8
F3.837745064388684
sg10
F2.7777738171577266
sg11
F4.1758125279456495
sa(dp464
g8
F20.366365229741692
sg10
F11.4020480312042
sg11
F23.193897418179453
sa(dp465
g8
F14.367722175334402
sg10
F5.77014758264617
sg11
F16.85502844588548
sa(dp466
g8
F6.646392997946772
sg10
F2.67350241734272
sg11
F7.893315289618327
sa(dp467
g8
F4.068525514931673
sg10
F1.3766756667659417
sg11
F4.912248770708415
sa(dp468
g8
F25.52823533579518
sg10
F13.471276482572792
sg11
F29.32638580233235
sa(dp469
g8
F10.002098180183426
sg10
F3.4041218847167967
sg11
F12.070220627287199
sa(dp470
g8
F20.00328735373253
sg10
F8.042423091796419
sg11
F23.467208138796714
sa(dp471
g8
F4.7459640806591326
sg10
F1.9204084845383607
sg11
F5.563500739543479
sa(dp472
g8
F4.8504234089327944
sg10
F2.0403253631511338
sg11
F5.732783937219735
sa(dp473
g8
F3.8142126971966306
sg10
F1.6704108508624047
sg11
F4.435729278826918
sa(dp474
g8
F4.848871282214191
sg10
F3.0261430446882427
sg11
F5.383249909925986
sa(dp475
g8
F4.568302513214808
sg10
F8.343140514085771
sg11
F3.41194103907354
sa(dp476
g8
F6.2614616554378575
sg10
F25.76018116949056
sg11
F0.2431011533054705
sa(dp477
g8
F1.842060095490735
sg10
F7.802990946418564
sg11
F0.00200590024117331
sa(dp478
g8
F12.886327197786573
sg10
F6.7434563381980865
sg11
F14.821124587503858
sa(dp479
g8
F6.906924804522391
sg10
F6.986660194122801
sg11
F6.9002711703497
sa(dp480
g8
F3.1259234573981587
sg10
F13.251042628474321
sg11
F0.00043608471922684637
sa(dp481
g8
F4.645326963642735
sg10
F18.989974292940918
sg11
F0.21789381939372876
sa(dp482
g8
F0.8007321074590901
sg10
F2.788132817923672
sg11
F0.18773678972602637
sa(dp483
g8
F4.735411694681484
sg10
F2.7656271083715573
sg11
F5.357401704518934
sa(dp484
g8
F6.038648678212059
sg10
F8.249026581020933
sg11
F5.3703121873273245
sa(dp485
g8
F10.64375069971456
sg10
F19.439006938872115
sg11
F7.9494634312246015
sa(dp486
g8
F4.9949386896912955
sg10
F20.55003812778657
sg11
F0.1937924824143372
sa(dp487
g8
F1.3962058013637717
sg10
F5.918632720478438
sg11
F0.00019376263930949357
sa(dp488
g8
F1.609127703321216
sg10
F6.612577715463843
sg11
F0.06479843558289443
sa(dp489
g8
F0.6837140999592609
sg10
F2.7888940655078005
sg11
F0.03396166898398303
sa(dp490
g8
F0.8568027777401814
sg10
F2.8105073279932387
sg11
F0.25438247417464893
sa(dp491
g8
F6.365570863082581
sg10
F2.74740037426274
sg11
F7.501977268211078
sa(dp492
g8
F8.453891870348556
sg10
F4.207321308402344
sg11
F9.790232684796903
sa(dp493
g8
F4.481573746933632
sg10
F3.8784188716444814
sg11
F4.669666271742079
sa(dp494
g8
F4.283119271908775
sg10
F15.270782744870095
sg11
F0.893700976380313
sa(dp495
g8
F12.612608509305101
sg10
F8.496448144638308
sg11
F13.919440699279011
sa(dp496
g8
F13.594607310117313
sg10
F8.528758703759348
sg11
F15.19792308189215
sa(dp497
g8
F19.507929040551407
sg10
F7.97012762435986
sg11
F22.84673987332651
sa(dp498
g8
F6.629027845910214
sg10
F2.9462001657288366
sg11
F7.786132641479923
sa(dp499
g8
F4.001335152961063
sg10
F2.273216204617621
sg11
F4.546615956712677
sa(dp500
g8
F10.21503791370901
sg10
F4.265131054628047
sg11
F12.08314365184819
sa(dp501
g8
F4.107301058485775
sg10
F1.7292688435682655
sg11
F4.795795262023684
sa(dp502
g8
F4.940295612053193
sg10
F2.5710573281983145
sg11
F5.6864480435939235
sa(dp503
g8
F3.7090730444520923
sg10
F3.6906571363854477
sg11
F3.7244515671334053
sa(dp504
g8
F3.156620520361622
sg10
F12.986581221766437
sg11
F0.12256247234624218
sa(dp505
g8
F2.300949842367523
sg10
F9.746301099656312
sg11
F0.002676720098259926
sa(dp506
g8
F14.043687890744593
sg10
F6.878876584708284
sg11
F16.29778796253375
sa(dp507
g8
F7.445491024518482
sg10
F6.112733789495944
sg11
F7.851489512090331
sa(dp508
g8
F4.57318208401206
sg10
F14.76390438946504
sg11
F1.431167725881864
sa(dp509
g8
F17.437508413795985
sg10
F7.014213711274573
sg11
F20.70893969375332
sa(dp510
g8
F8.216445257580798
sg10
F2.780216127909885
sg11
F9.920356396443074
sa(dp511
g8
F31.078656142334662
sg10
F12.889576557823386
sg11
F36.78913363712699
sa(dp512
g8
F3.720161087308632
sg10
F1.5098881186236879
sg11
F4.359703949457628
sa(dp513
g8
F4.871055656226987
sg10
F2.085242100394954
sg11
F5.745954166810134
sa(dp514
g8
F3.8082152282943
sg10
F1.8221339315941611
sg11
F4.384710035817965
sa(dp515
g8
F4.790218832442648
sg10
F4.1994337195260885
sg11
F4.9855623965608356
sa(dp516
g8
F3.290191207513864
sg10
F10.70559364446125
sg11
F1.003768465926401
sa(dp517
g8
F18.921904316225447
sg10
F7.876314922615383
sg11
F22.38980447608347
sa(dp518
g8
F7.805242121677071
sg10
F3.2319397861011887
sg11
F9.241011172326218
sa(dp519
g8
F4.582448514246692
sg10
F1.8432835951728657
sg11
F5.44215650993948
sa(dp520
g8
F4.002654616433198
sg10
F1.3543867901746438
sg11
F4.832717687767665
sa(dp521
g8
F76.32000280193863
sg10
F29.84362584960568
sg11
F89.76049133601906
sa(dp522
g8
F4.752305744727817
sg10
F1.6080478433250418
sg11
F5.737830073055792
sa(dp523
g8
F74.82311408307218
sg10
F32.61659280584547
sg11
F88.08095301496107
sa(dp524
g8
F3.69956483104011
sg10
F1.9285522047797914
sg11
F4.257333410715107
sa(dp525
g8
F3.69956483104011
sg10
F3.69956483104011
sg11
F3.69956483104011
sasb.