ccopy_reg
_reconstructor
p0
(cmyhmm_scaled
MyHmmScaled
p1
c__builtin__
object
p2
Ntp3
Rp4
(dp5
S'A'
p6
(dp7
Vq1
p8
(dp9
g8
F0.2591803277245205
sVq3
p10
F0.7377604605942893
sVq2
p11
F0.003059211681190497
ssg10
(dp12
g8
F0.9997635522874989
sg10
F0.00023644771250122865
sg11
F8.224177127802264e-20
ssg11
(dp13
g8
F1.0
sg10
F6.368265318947823e-32
sg11
F0.0
sssS'symbols'
p14
(lp15
V11
p16
aV10
p17
aV13
p18
aV12
p19
aV15
p20
aV14
p21
aV1
p22
aV0
p23
aV3
p24
aV2
p25
aV5
p26
aV4
p27
aV7
p28
aV6
p29
aV9
p30
aV8
p31
asS'B'
p32
(dp33
g8
(dp34
g16
F0.3493383684558322
sg17
F0.03213941735178401
sg18
F4.487020010842033e-11
sg19
F0.019141339193947615
sg20
F0.08890226326541924
sg21
F0.020627931306627174
sg22
F0.05384503868698494
sg23
F0.03308373615804199
sg24
F0.05384503870136928
sg25
F5.150627400668445e-11
sg26
F0.035896692467579525
sg27
F1.044392783204529e-08
sg28
F0.06190292191225779
sg29
F0.07179338493515905
sg30
F0.17948346233786766
sg31
F3.9468682550363644e-07
ssg10
(dp35
g16
F0.4508539024857221
sg17
F0.0050916390668930825
sg18
F0.09729018823112938
sg19
F0.02270587292076842
sg20
F0.0011375977114492224
sg21
F0.020691330401474726
sg22
F1.9492834979741255e-11
sg23
F0.052457047702121146
sg24
F2.8208105928620543e-40
sg25
F0.0972901882221365
sg26
F9.16976062311318e-86
sg27
F0.06882196266028694
sg28
F0.03772552299704056
sg29
F1.135255514725863e-18
sg30
F4.056665445415268e-14
sg31
F0.14593474758144429
ssg11
(dp36
g16
F2.1994567339553597e-36
sg17
F9.421019417626889e-39
sg18
F2.981636855250901e-37
sg19
F2.12457076102518e-37
sg20
F9.780589723818493e-39
sg21
F6.346144297771392e-38
sg22
F5.009131726179111e-47
sg23
F4.8377477038220386e-37
sg24
F1.1627402449948957e-75
sg25
F1.8527090154641113e-37
sg26
F4.891866300585499e-139
sg27
F1.0
sg28
F4.524665783259442e-37
sg29
F1.275018760148065e-52
sg30
F1.5755325702894166e-47
sg31
F1.3657735548995452e-36
sssS'bwk'
p37
(lp38
(dp39
a(dp40
a(dp41
a(dp42
a(dp43
a(dp44
a(dp45
a(dp46
a(dp47
a(dp48
a(dp49
a(dp50
a(dp51
a(dp52
a(dp53
a(dp54
a(dp55
a(dp56
a(dp57
a(dp58
a(dp59
a(dp60
a(dp61
a(dp62
a(dp63
a(dp64
a(dp65
a(dp66
a(dp67
a(dp68
a(dp69
a(dp70
a(dp71
a(dp72
a(dp73
a(dp74
a(dp75
a(dp76
a(dp77
a(dp78
a(dp79
a(dp80
a(dp81
a(dp82
a(dp83
a(dp84
a(dp85
a(dp86
a(dp87
a(dp88
a(dp89
a(dp90
a(dp91
a(dp92
a(dp93
a(dp94
a(dp95
a(dp96
a(dp97
a(dp98
a(dp99
a(dp100
a(dp101
a(dp102
a(dp103
a(dp104
a(dp105
a(dp106
a(dp107
a(dp108
a(dp109
a(dp110
a(dp111
a(dp112
a(dp113
a(dp114
a(dp115
a(dp116
a(dp117
a(dp118
a(dp119
a(dp120
a(dp121
a(dp122
a(dp123
a(dp124
a(dp125
a(dp126
a(dp127
a(dp128
a(dp129
a(dp130
a(dp131
a(dp132
a(dp133
a(dp134
a(dp135
a(dp136
a(dp137
a(dp138
g8
I1
sg10
I1
sg11
I1
sasS'fwd'
p139
(lp140
(dp141
g8
F5.28312742952623e-174
sg10
F1.0110891978227589e-45
sg11
F1.0
sa(dp142
a(dp143
a(dp144
a(dp145
a(dp146
a(dp147
a(dp148
a(dp149
a(dp150
a(dp151
a(dp152
a(dp153
a(dp154
a(dp155
a(dp156
a(dp157
a(dp158
a(dp159
a(dp160
a(dp161
a(dp162
a(dp163
a(dp164
a(dp165
a(dp166
a(dp167
a(dp168
a(dp169
a(dp170
a(dp171
a(dp172
a(dp173
a(dp174
a(dp175
a(dp176
a(dp177
a(dp178
a(dp179
a(dp180
a(dp181
a(dp182
a(dp183
a(dp184
a(dp185
a(dp186
a(dp187
a(dp188
a(dp189
a(dp190
a(dp191
a(dp192
a(dp193
a(dp194
a(dp195
a(dp196
a(dp197
a(dp198
a(dp199
a(dp200
a(dp201
a(dp202
a(dp203
a(dp204
a(dp205
a(dp206
a(dp207
a(dp208
a(dp209
a(dp210
a(dp211
a(dp212
a(dp213
a(dp214
a(dp215
a(dp216
a(dp217
a(dp218
a(dp219
a(dp220
a(dp221
a(dp222
a(dp223
a(dp224
a(dp225
a(dp226
a(dp227
a(dp228
a(dp229
a(dp230
a(dp231
a(dp232
a(dp233
a(dp234
a(dp235
a(dp236
a(dp237
a(dp238
a(dp239
a(dp240
asS'logpi'
p241
(dp242
g8
F-1.0986122886681098
sg10
F-1.0986122886681098
sg11
F-1.0986122886681098
ssS'M'
p243
I16
sS'fwd_scaled'
p244
(lp245
(dp246
g8
F5.28312742952623e-174
sg10
F1.0110891978227589e-45
sg11
F1.0
sa(dp247
g8
F1.0
sg10
F2.702652002211775e-40
sg11
F1.2599584166563598e-108
sa(dp248
g8
F5.264344504993128e-10
sg10
F0.9999999994735654
sg11
F8.72414435009867e-38
sa(dp249
g8
F1.0
sg10
F1.5370938505732268e-20
sg11
F8.00559809228002e-62
sa(dp250
g8
F0.1818953330337808
sg10
F0.8181046669662192
sg11
F2.1484937903750006e-37
sa(dp251
g8
F0.91570082845568
sg10
F0.08429917154431982
sg11
F2.873815359051685e-38
sa(dp252
g8
F1.8713837162234587e-06
sg10
F0.9999981286162838
sg11
F2.6645149764967993e-37
sa(dp253
g8
F0.9999999999999998
sg10
F1.8589227400530656e-16
sg11
F1.181290058075882e-53
sa(dp254
g8
F0.2145562609662646
sg10
F0.7854437390337353
sg11
F1.0911963274450865e-37
sa(dp255
g8
F2.0815222095250885e-05
sg10
F0.9999791847779048
sg11
F2.661386158054282e-37
sa(dp256
g8
F0.9996717648802211
sg10
F0.0003282351197789181
sg11
F2.7518306643132117e-42
sa(dp257
g8
F0.26049218050480477
sg10
F0.7395078194951952
sg11
F6.46246462347704e-38
sa(dp258
g8
F0.7796854543776619
sg10
F0.2203145456223382
sg11
F5.863237464174813e-38
sa(dp259
g8
F0.3827756090922962
sg10
F0.6172243909077038
sg11
F1.6439819677396679e-37
sa(dp260
g8
F0.9999999999996954
sg10
F3.0468578844294306e-13
sg11
F3.371058495428766e-48
sa(dp261
g8
F0.21455626096646194
sg10
F0.7854437390335381
sg11
F1.0911963274448124e-37
sa(dp262
g8
F0.8995399556380894
sg10
F0.10046004436191053
sg11
F3.4256782380428645e-38
sa(dp263
g8
F8.946746910794071e-10
sg10
F0.9999999991053253
sg11
F5.420800769868752e-38
sa(dp264
g8
F1.0
sg10
F5.551931566450376e-41
sg11
F1.871016210931975e-83
sa(dp265
g8
F0.9999999999999998
sg10
F1.823793460758848e-16
sg11
F5.848367104184161e-52
sa(dp266
g8
F6.258903342278286e-10
sg10
F0.9999999993741098
sg11
F5.420996992351126e-38
sa(dp267
g8
F1.0
sg10
F1.8358171673415239e-84
sg11
F1.4399620966258442e-142
sa(dp268
g8
F0.2145562609662645
sg10
F0.7854437390337355
sg11
F1.091196327445087e-37
sa(dp269
g8
F0.9983792955735339
sg10
F0.001620704426466177
sg11
F3.96231431113288e-40
sa(dp270
g8
F0.2156068468673354
sg10
F0.7843931531326646
sg11
F1.0897362027107588e-37
sa(dp271
g8
F0.9999999999998536
sg10
F1.4645739810511226e-13
sg11
F1.6193492270808076e-48
sa(dp272
g8
F0.18189533303386457
sg10
F0.8181046669661354
sg11
F2.14849379037478e-37
sa(dp273
g8
F0.833078915334319
sg10
F0.16692108466568087
sg11
F2.3156150323467958e-38
sa(dp274
g8
F0.3259759616582993
sg10
F0.6740240383417007
sg11
F9.363430587061555e-38
sa(dp275
g8
F0.7096175476517559
sg10
F0.290382452348244
sg11
F4.031505151408182e-38
sa(dp276
g8
F0.9999999999991479
sg10
F8.521798788428336e-13
sg11
F9.43223671048594e-48
sa(dp277
g8
F0.21455626096681674
sg10
F0.7854437390331833
sg11
F1.0911963274443192e-37
sa(dp278
g8
F1.0
sg10
F4.3739443471481716e-38
sg11
F5.333802365284458e-75
sa(dp279
g8
F0.2145562609662645
sg10
F0.7854437390337355
sg11
F1.091196327445087e-37
sa(dp280
g8
F0.9999999999998543
sg10
F1.456101409211042e-13
sg11
F1.609969442209505e-48
sa(dp281
g8
F0.21455626096635885
sg10
F0.7854437390336411
sg11
F1.0911963274449556e-37
sa(dp282
g8
F0.9999999999998542
sg10
F1.4561014092118024e-13
sg11
F1.6099694422103467e-48
sa(dp283
g8
F0.37286009270441467
sg10
F0.6271399072955852
sg11
F2.1410787628229183e-37
sa(dp284
g8
F0.9999999995798694
sg10
F4.201305108336625e-10
sg11
F3.07301965329536e-47
sa(dp285
g8
F0.21455626123852778
sg10
F0.7854437387614723
sg11
F1.0911963270666903e-37
sa(dp286
g8
F0.8044610477744292
sg10
F0.19553895222557088
sg11
F2.713351725989126e-38
sa(dp287
g8
F0.9875204006955163
sg10
F0.012479599304483694
sg11
F3.054404388646075e-39
sa(dp288
g8
F0.9999999999979086
sg10
F2.091361046409921e-12
sg11
F2.3150919759431318e-47
sa(dp289
g8
F0.21455626096761982
sg10
F0.7854437390323801
sg11
F1.0911963274432033e-37
sa(dp290
g8
F0.8044610480102328
sg10
F0.1955389519897672
sg11
F2.7133517227118804e-38
sa(dp291
g8
F0.34575362869608556
sg10
F0.6542463713039144
sg11
F9.08855672096703e-38
sa(dp292
g8
F0.9999999999997349
sg10
F2.6510877232773216e-13
sg11
F2.932910664975889e-48
sa(dp293
g8
F0.21455626096643626
sg10
F0.7854437390335637
sg11
F1.091196327444848e-37
sa(dp294
g8
F0.9983792955735324
sg10
F0.0016207044264677152
sg11
F3.962314311136645e-40
sa(dp295
g8
F1.390741781317627e-06
sg10
F0.9999986092582187
sg11
F2.664594360691284e-37
sa(dp296
g8
F1.0
sg10
F1.8436900585804742e-84
sg11
F3.1996299271169988e-139
sa(dp297
g8
F0.1818953330337808
sg10
F0.8181046669662192
sg11
F2.1484937903750006e-37
sa(dp298
g8
F0.833078915334393
sg10
F0.16692108466560698
sg11
F2.3156150323457693e-38
sa(dp299
g8
F0.32597596165824844
sg10
F0.6740240383417516
sg11
F9.363430587062263e-38
sa(dp300
g8
F1.2364226715533668e-05
sg10
F0.9999876357732845
sg11
F2.6627819485837735e-37
sa(dp301
g8
F0.9999999999999999
sg10
F1.9187519451955494e-16
sg11
F7.804840543688262e-53
sa(dp302
g8
F6.258903342278286e-10
sg10
F0.9999999993741098
sg11
F5.420996992351127e-38
sa(dp303
g8
F0.9996915641994132
sg10
F0.0003084358005868581
sg11
F8.27448224043283e-47
sa(dp304
g8
F0.2147561518572324
sg10
F0.7852438481427676
sg11
F1.0909185151940646e-37
sa(dp305
g8
F1.0
sg10
F1.212300284468632e-17
sg11
F3.882887299020256e-53
sa(dp306
g8
F0.2602491793864782
sg10
F0.7397508206135218
sg11
F6.464588867275424e-38
sa(dp307
g8
F9.133977639776509e-07
sg10
F0.9432067648609811
sg11
F0.056792321741255015
sa(dp308
g8
F0.9997082115412945
sg10
F0.00029178845870551624
sg11
F1.2075472839080235e-43
sa(dp309
g8
F5.270253146891511e-10
sg10
F0.9999999994729746
sg11
F8.724143524765021e-38
sa(dp310
g8
F0.9999999999997357
sg10
F2.643052199367271e-13
sg11
F3.1451774513936217e-56
sa(dp311
g8
F7.661981677425548e-08
sg10
F0.9431582049475518
sg11
F0.056841718432631326
sa(dp312
g8
F0.9997090227479077
sg10
F0.00029097725209234064
sg11
F1.0129438893539306e-44
sa(dp313
g8
F1.0
sg10
F6.580108581200301e-37
sg11
F8.033627469811022e-74
sa(dp314
g8
F1.3821139858783468e-06
sg10
F0.9999986178860141
sg11
F2.6645957856826166e-37
sa(dp315
g8
F0.9996902500909893
sg10
F0.0003097499090105896
sg11
F1.8272009138524957e-43
sa(dp316
g8
F0.21475700354990496
sg10
F0.7852429964500951
sg11
F1.0909173314950105e-37
sa(dp317
g8
F0.8042863247564538
sg10
F0.19571367524354621
sg11
F2.7157800605017264e-38
sa(dp318
g8
F1.0190057416524492e-09
sg10
F0.9999999989809943
sg11
F8.723456314389724e-38
sa(dp319
g8
F0.9996915638254711
sg10
F0.0003084361745288566
sg11
F1.3471600920880252e-46
sa(dp320
g8
F0.3731374030398305
sg10
F0.6268625969601693
sg11
F2.1401318010974965e-37
sa(dp321
g8
F0.935607372912693
sg10
F0.06439262708730714
sg11
F3.391864556121834e-39
sa(dp322
g8
F0.9810344344159216
sg10
F0.018965565584078282
sg11
F4.6421184573023406e-39
sa(dp323
g8
F1.4848613290872706e-06
sg10
F0.999998515138671
sg11
F2.6645788156380076e-37
sa(dp324
g8
F1.0
sg10
F1.544132450212487e-20
sg11
F2.2580618721449895e-58
sa(dp325
g8
F0.2145562609662645
sg10
F0.7854437390337355
sg11
F1.091196327445087e-37
sa(dp326
g8
F0.8044610480114125
sg10
F0.19553895198858748
sg11
F2.7133517226954846e-38
sa(dp327
g8
F0.34575362869526605
sg10
F0.654246371304734
sg11
F9.088556720978421e-38
sa(dp328
g8
F5.177396115206478e-09
sg10
F0.9999999948226037
sg11
F5.417674225455952e-38
sa(dp329
g8
F0.9999567480414706
sg10
F4.325195852934553e-05
sg11
F3.641160523890987e-47
sa(dp330
g8
F0.21458429037201085
sg10
F0.7854157096279892
sg11
F1.0911573716314054e-37
sa(dp331
g8
F0.804436650795425
sg10
F0.19556334920457485
sg11
F2.7136907999520477e-38
sa(dp332
g8
F0.3457705767957741
sg10
F0.6542294232042261
sg11
F9.088321172978718e-38
sa(dp333
g8
F0.6932036605407311
sg10
F0.30679633945926893
sg11
F4.259628549341141e-38
sa(dp334
g8
F0.42462724688001646
sg10
F0.5753727531199837
sg11
F7.992355823173628e-38
sa(dp335
g8
F0.6290670787353283
sg10
F0.3709329212646718
sg11
F5.151011247070692e-38
sa(dp336
g8
F0.992572233938297
sg10
F0.007427766061703019
sg11
F1.8177549263596883e-39
sa(dp337
g8
F7.882470620278959e-08
sg10
F0.9431583329017363
sg11
F0.05684158827355749
sa(dp338
g8
F0.9996425241035547
sg10
F0.00035747589644542093
sg11
F2.420073716023412e-44
sa(dp339
g8
F0.2147879357173998
sg10
F0.7852120642826003
sg11
F1.0908743413665501e-37
sa(dp340
g8
F0.9999999999998543
sg10
F1.457968430976242e-13
sg11
F1.6120363780630045e-48
sa(dp341
g8
F0.214556260966359
sg10
F0.7854437390336411
sg11
F1.0911963274449556e-37
sa(dp342
g8
F0.8995399556381409
sg10
F0.10046004436185907
sg11
F3.425678238041107e-38
sa(dp343
g8
F7.5250815300596e-10
sg10
F0.9999999992474919
sg11
F8.723828564783995e-38
sa(dp344
g8
F0.9996915640789708
sg10
F0.0003084359210291488
sg11
F9.948412640661701e-47
sa(dp345
g8
F0.21475615193529277
sg10
F0.7852438480647073
sg11
F1.0909185150855746e-37
sasS'N'
p346
I3
sS'states'
p347
(lp348
g8
ag10
ag11
asS'clist'
p349
(lp350
F1.0
aF18.580146301365883
aF13.938352300899293
aF13.938439214215254
aF21.15339582665065
aF16.959102251150124
aF10.147407653737298
aF5.575383404182694
aF2.363044335723598
aF43.257085082084686
aF2.862922759168449
aF48.52272701594988
aF50.48064620809655
aF47.28895647420667
aF7.7786291651924415
aF2.363044335723724
aF17.138425858546654
aF15.494417668061546
aF18.584585624017755
aF53.60426028488622
aF13.938352304844312
aF27.876878430482087
aF2.363044335723598
aF13.317883047784244
aF2.363713237587467
aF6.633748543985899
aF21.15339582665158
aF2.7568540717294128
aF2.433984603805141
aF2.678246945101751
aF11.740088755254853
aF2.3630443357239495
aF22.092060374473444
aF2.363044335723598
aF6.627618112341628
aF2.363044335723658
aF6.627618112342178
aF22.98254913272865
aF25.666027602542098
aF2.363044335896947
aF2.7386332437787795
aF27.38097953858663
aF20.706333699557092
aF2.363044335724461
aF2.7386332439289145
aF2.4465769280796965
aF7.492264886956776
aF2.3630443357237074
aF13.317883047786239
aF9.307350897294155
aF27.876907106096855
aF21.15339582665065
aF2.7568540717294603
aF2.4339846038051087
aF28.486597424173365
aF5.575426694326393
aF13.938352304844312
aF2.8629353652785228
aF2.363171605078158
aF16.57195913183229
aF48.5227445758087
aF71.34730627452892
aF2.862946125784009
aF13.94241921929851
aF18.58458563411153
aF18.584228008305438
aF2.8629466424147623
aF71.41321268490688
aF9.292271401882678
aF2.862934528593419
aF2.3631721473458738
aF2.738521998660921
aF17.328720648428135
aF2.862935365040436
aF22.979472053274062
aF40.83828530759316
aF35.78080020640414
aF9.471851237932876
aF13.93845452380881
aF2.363044335723598
aF2.738633243929665
aF2.4465769280791747
aF40.28825071122654
aF31.5955712756174
aF2.3630621818813737
aF2.738617710365745
aF2.4465877188350835
aF2.667796319721463
aF2.4967952968580764
aF2.626960935324902
aF20.838470457622197
aF18.72325742928256
aF30.22819584798269
aF2.36319184167498
aF6.628969018480397
aF2.363044335723658
aF17.138425858546082
aF15.49441766433701
aF2.862935365201838
aF2.363171605127859
asS'logB'
p351
(dp352
g8
(dp353
g16
F-2.9212348804951955
sg17
F-2.5633371230760758
sg18
F-2.2705196883974508
sg19
F-5.11102215480017
sg20
F-2.6570023729358256
sg21
F-2.394531914401664
sg22
F-2.5567896167969173
sg23
F-3.093728761473657
sg24
F-3.955377711169584
sg25
F-2.5311773915230478
sg26
F-2.3856993883549533
sg27
F-2.744681015196079
sg28
F-2.319990802883572
sg29
F-2.6363994576488694
sg30
F-3.0060044723555492
sg31
F-6.771947206302559
ssg10
(dp354
V11
p355
F-2.2061636400830515
sV10
p356
F-2.7886349913133275
sV13
p357
F-2.2366278495501097
sV12
p358
F-4.803495959222991
sV15
p359
F-2.3946538192158955
sV14
p360
F-3.4340383811510673
sV1
p361
F-4.3946466318475315
sV0
p362
F-2.883896900512308
sV3
p363
F-2.4577642134121223
sV2
p364
F-2.428127950235306
sV5
p365
F-3.4036523078985326
sV4
p366
F-2.347181559984261
sV7
p367
F-3.329045325183329
sV6
p368
F-2.1769737091555577
sV9
p369
F-3.144112388866956
sV8
p370
F-3.626896918534498
ssg11
(dp371
V11
p372
F-3.776462439005156
sV10
p373
F-2.56023877712607
sV13
p374
F-2.2875507466486336
sV12
p375
F-4.0011284607127555
sV15
p376
F-2.352279906055419
sV14
p377
F-3.184664319984376
sV1
p378
F-4.212541507026543
sV0
p379
F-2.2779335809252834
sV3
p380
F-2.523757470272191
sV2
p381
F-2.89618699908023
sV5
p382
F-2.2244950581471348
sV4
p383
F-2.159180925692466
sV7
p384
F-3.3688691655609246
sV6
p385
F-3.3780880383582845
sV9
p386
F-2.504124323723734
sV8
p387
F-4.078634034718041
sssS'logA'
p388
(dp389
g8
(dp390
Vq1
p391
F-0.12159375102178108
sVq3
p392
F-2.1714793139375113
sVq2
p393
F-7.635223578707189
ssg10
(dp394
Vq1
p395
F-0.051018605614936104
sVq3
p396
F-3.3863773220688
sVq2
p397
F-4.140933416759925
ssg11
(dp398
Vq1
p399
F-0.02848274252499949
sVq3
p400
F-3.5815404521278484
sVq2
p401
F-8.301505382807537
sssS'model'
p402
(dp403
VA
p404
(dp405
g8
(dp406
g391
F0.8855080321744565
sg392
F0.11400883724062709
sg393
F0.00048313058491640786
ssg10
(dp407
g395
F0.9502609901778785
sg396
F0.033831014039701346
sg397
F0.01590799578242019
ssg11
(dp408
g399
F0.9719190668704077
sg400
F0.027832790133992855
sg401
F0.0002481429955994003
sssVB
p409
(dp410
Vq1
p411
(dp412
g16
F0.05386712674749742
sg17
F0.077047194979542
sg18
F0.103258503890451
sg19
F0.00602991626464192
sg20
F0.07015821501075101
sg21
F0.09121536553027698
sg22
F0.07755331708317478
sg23
F0.045332604399164866
sg24
F0.01915143347300857
sg25
F0.07956528562270637
sg26
F0.09202459613648334
sg27
F0.06426879844520396
sg28
F0.0982744894421265
sg29
F0.07161867194567796
sg30
F0.0494890190022545
sg31
F0.0011454620270388422
ssVq3
p413
(dp414
g355
F0.1101223079879357
sg356
F0.061505111653083845
sg357
F0.1068181044446883
sg358
F0.008201026421244215
sg359
F0.09120424661582534
sg360
F0.032256413698180074
sg361
F0.012343241263237551
sg362
F0.05591643692155573
sg363
F0.08562617897768209
sg364
F0.08820179627603751
sg365
F0.03325160282102376
sg366
F0.09563833362215457
sg367
F0.03582729215985531
sg368
F0.11338414535406975
sg369
F0.04310516769831538
sg370
F0.026598594085111
ssVq2
p415
(dp416
g372
F0.022903571062053995
sg373
F0.07728628404311588
sg374
F0.10151479306384253
sg375
F0.018294982067217063
sg376
F0.09515197715995265
sg377
F0.04139213798270078
sg378
F0.014808684096303926
sg379
F0.10249578728310807
sg380
F0.08015784944613936
sg381
F0.055233424144602555
sg382
F0.10812200017652181
sg383
F0.11541961957709766
sg384
F0.034428548326521306
sg385
F0.03411261443362269
sg386
F0.08174715069273093
sg387
F0.016930576444468923
sssVpi
p417
(dp418
Vq1
p419
F0.3333333333333333
sVq3
p420
F0.3333333333333333
sVq2
p421
F0.3333333333333333
sssS'pi'
p422
(dp423
g8
F1.3734162168415564e-174
sg10
F1.0108476775568969e-45
sg11
F1.0
ssS'bwk_scaled'
p424
(lp425
(dp426
g8
F0.2599627276006701
sg10
F0.9997611286260573
sg11
F0.9999999999999994
sa(dp427
g8
F18.580146301365872
sg10
F0.006022253355179323
sg11
F9.78356612604923e-09
sa(dp428
g8
F3.6243178295882412
sg10
F13.93835230632895
sg11
F13.941682575200755
sa(dp429
g8
F13.938439214215245
sg10
F2.9354508929498984
sg11
F2.931880513012736
sa(dp430
g8
F6.359189198206668
sg10
F24.442702501345966
sg11
F24.448541430184978
sa(dp431
g8
F18.51979767337975
sg10
F0.0060282775665466285
sg11
F2.5602613289950498e-05
sa(dp432
g8
F2.6385817063741475
sg10
F10.14742170565819
sg11
F10.149846213368475
sa(dp433
g8
F5.575383404182685
sg10
F21.415987805243496
sg11
F21.42110252338129
sa(dp434
g8
F11.000409301540007
sg10
F0.0036127945842994906
sg11
F4.732965185582928e-05
sa(dp435
g8
F35.00664973317816
sg10
F43.25725682030356
sg11
F43.259888994722935
sa(dp436
g8
F2.8633201714710634
sg10
F1.6525652014170507
sg11
F1.6521710028157592
sa(dp437
g8
F27.971286306723577
sg10
F55.76198732088609
sg11
F55.77094252597509
sa(dp438
g8
F60.05765795346412
sg10
F16.587937339626322
sg11
F16.57382682067704
sa(dp439
g8
F17.155504714873054
sg10
F65.97640713420003
sg11
F65.99217077470243
sa(dp440
g8
F7.778629165194193
sg10
F1.9872993924454663
sg11
F1.985419714614701
sa(dp441
g8
F0.7307873569574773
sg10
F2.8089208981003218
sg11
F2.8095919001175966
sa(dp442
g8
F19.051744615893476
sg10
F0.006175111125443305
sg11
F1.1927151865940888e-08
sa(dp443
g8
F4.028933479111539
sg10
F15.494417678319401
sg11
F15.498119735474134
sa(dp444
g8
F18.584585624017727
sg10
F71.47234709383221
sg11
F71.48942387073456
sa(dp445
g8
F53.60426028488616
sg10
F0.017374380705283014
sg11
F3.355840454348214e-08
sa(dp446
g8
F3.624317830880771
sg10
F13.938352311299745
sg11
F13.941682580172737
sa(dp447
g8
F27.87687843048205
sg10
F7.159840839420558
sg11
F7.153116710523685
sa(dp448
g8
F0.7346710603675778
sg10
F2.807860003676574
sg11
F2.8085294035724435
sa(dp449
g8
F13.333975209787605
sg10
F3.4048593632501256
sg11
F3.401636696553928
sa(dp450
g8
F0.7312981825019418
sg10
F2.8124166223634783
sg11
F2.813088588699682
sa(dp451
g8
F6.633748543985652
sg10
F8.255019657393525
sg11
F8.25553713135598
sa(dp452
g8
F37.62321934953831
sg10
F17.491536708045068
sg11
F17.48499212143577
sa(dp453
g8
F2.3666122475835607
sg10
F4.704494396668847
sg11
F4.705247736463895
sa(dp454
g8
F4.8866415012783175
sg10
F1.2478144595789684
sg11
F1.2466334151736298
sa(dp455
g8
F1.4664346022544437
sg10
F5.639594285450543
sg11
F5.640941744955489
sa(dp456
g8
F11.740088755262287
sg10
F2.9978570152356934
sg11
F2.9950195723541246
sa(dp457
g8
F0.7304156123262006
sg10
F2.809022445970808
sg11
F2.8096936013417175
sa(dp458
g8
F22.092060374473427
sg10
F5.641255322279768
sg11
F5.635915928280671
sa(dp459
g8
F0.7304156123261194
sg10
F2.809022445968923
sg11
F2.809693601339832
sa(dp460
g8
F6.627618112342344
sg10
F1.6923765966849096
sg11
F1.6907747784851808
sa(dp461
g8
F0.7304156123265874
sg10
F2.809022445969122
sg11
F2.8096936013400304
sa(dp462
g8
F6.6276181123426445
sg10
F3.4146473166352798
sg11
F3.413602197631432
sa(dp463
g8
F8.253132401770923
sg10
F31.739784358708828
sg11
F31.74736789608121
sa(dp464
g8
F25.666027592755622
sg10
F48.95987998151684
sg11
F48.96738393116038
sa(dp465
g8
F5.462481868459665
sg10
F1.5163844211108943
sg11
F1.5151034849238108
sa(dp466
g8
F1.8357443065747243
sg10
F6.4531820443124905
sg11
F6.454672744059836
sa(dp467
g8
F26.441914147048838
sg10
F101.68995445875846
sg11
F101.71425108166383
sa(dp468
g8
F20.706333699580252
sg10
F9.626650835760637
sg11
F9.623048953821748
sa(dp469
g8
F1.3306114284451032
sg10
F2.6450695569817855
sg11
F2.6454931170904676
sa(dp470
g8
F3.205357902255863
sg10
F0.8184950620000012
sg11
F0.8177203642824429
sa(dp471
g8
F0.8548948494986407
sg10
F3.2877430063922413
sg11
F3.288528541723251
sa(dp472
g8
F7.492264886958251
sg10
F1.9131802139480718
sg11
F1.9113694252699476
sa(dp473
g8
F0.7304210391096627
sg10
F2.809020963558584
sg11
F2.809692116690814
sa(dp474
g8
F13.339495389806013
sg10
F0.00434206583817078
sg11
F1.844112705595653e-05
sa(dp475
g8
F2.420144919347682
sg10
F9.307360475632581
sg11
F9.309584268817705
sa(dp476
g8
F27.876907106096844
sg10
F49.87476351794417
sg11
F49.88184636307243
sa(dp477
g8
F54.096299431529985
sg10
F13.828953534284777
sg11
F13.815884048592117
sa(dp478
g8
F1.8699945744047042
sg10
F7.183041150284558
sg11
F7.184756661601198
sa(dp479
g8
F7.461738902094698
sg10
F0.002428829624611947
sg11
F1.0315448308266414e-05
sa(dp480
g8
F7.407290710900641
sg10
F28.48685805672308
sg11
F28.49366437748158
sa(dp481
g8
F5.575426694326391
sg10
F0.0018071280208512227
sg11
F6.752730570276926e-09
sa(dp482
g8
F7.011736544821463
sg10
F13.938352309179605
sg11
F13.940584284517776
sa(dp483
g8
F2.863593064030493
sg10
F0.7312246725508084
sg11
F0.7305325754189532
sa(dp484
g8
F0.7305834098396023
sg10
F2.8096677593698747
sg11
F2.8103390689245127
sa(dp485
g8
F16.57195913183228
sg10
F63.67687559671942
sg11
F63.692085148177185
sa(dp486
g8
F186.28534370850332
sg10
F0.05696072619114387
sg11
F1.4293304270149366e-05
sa(dp487
g8
F18.573843513966686
sg10
F71.34638676153418
sg11
F71.36342630645899
sa(dp488
g8
F2.863781473323014
sg10
F0.0009282175342694736
sg11
F1.507953433756207e-09
sa(dp489
g8
F3.6253753294001463
sg10
F13.942419224735845
sg11
F13.945750465310152
sa(dp490
g8
F18.584585634116433
sg10
F0.00570303675834693
sg11
F2.145194329483663e-05
sa(dp491
g8
F72.78271617842991
sg10
F18.5852237433566
sg11
F18.56763300752599
sa(dp492
g8
F2.86057791480173
sg10
F11.001171710357472
sg11
F11.003800203230604
sa(dp493
g8
F71.41321268490684
sg10
F0.02333766642398116
sg11
F0.00019109874109493372
sa(dp494
g8
F4.677010706019311
sg10
F9.292277780707845
sg11
F9.293764961188272
sa(dp495
g8
F2.8635947793365397
sg10
F0.7320340462581653
sg11
F0.7313422101885507
sa(dp496
g8
F0.731393314695695
sg10
F2.809449203162168
sg11
F2.8101201794784174
sa(dp497
g8
F3.4046407832342225
sg10
F0.0011035304368210684
sg11
F9.738425237742123e-09
sa(dp498
g8
F24.47657915203027
sg10
F17.32872064114442
sg11
F17.32638592589548
sa(dp499
g8
F2.8627488297684103
sg10
F3.4675263734864843
sg11
F3.4677190201788077
sa(dp500
g8
F19.408668230163684
sg10
F25.104978458954164
sg11
F25.10680046194612
sa(dp501
g8
F34.513783176869325
sg10
F132.731582586555
sg11
F132.763295848419
sa(dp502
g8
F36.47229270855593
sg10
F0.01187189556889895
sg11
F5.0420961528612856e-05
sa(dp503
g8
F2.4629193096697506
sg10
F9.471861645240308
sg11
F9.474124742434434
sa(dp504
g8
F13.93845452380881
sg10
F27.692900402880706
sg11
F27.69733250683044
sa(dp505
g8
F5.689381878415172
sg10
F1.4544031302445093
sg11
F1.4530285923265684
sa(dp506
g8
F1.7605325262542002
sg10
F6.762608622747503
sg11
F6.76422372588861
sa(dp507
g8
F7.071732925706779
sg10
F0.0022921148943865722
sg11
F7.10142516774924e-09
sa(dp508
g8
F16.80393205938255
sg10
F40.288250832814164
sg11
F40.29582513634864
sa(dp509
g8
F31.595329168892555
sg10
F37.192919037054004
sg11
F37.194697044825354
sa(dp510
g8
F3.3705174220817735
sg10
F2.0878142270087086
sg11
F2.0873962692021664
sa(dp511
g8
F2.5291321127262787
sg10
F3.600322591369226
sg11
F3.6006663301642536
sa(dp512
g8
F3.764378012965963
sg10
F1.7501147478307368
sg11
F1.7494599331875402
sa(dp513
g8
F2.0473164314603127
sg10
F4.0697652304086676
sg11
F4.070416927557782
sa(dp514
g8
F4.368456238526228
sg10
F1.1155025115396968
sg11
F1.114446708998453
sa(dp515
g8
F1.2779625620143953
sg10
F4.914734323095035
sg11
F4.91590858983663
sa(dp516
g8
F20.99436398559181
sg10
F0.006421355924704396
sg11
F3.4564891231743714e-06
sa(dp517
g8
F10.458848137570014
sg10
F18.723106829182775
sg11
F18.72576775988768
sa(dp518
g8
F30.2362445444119
sg10
F7.720890336648005
sg11
F7.713582588075028
sa(dp519
g8
F0.7306100960975078
sg10
F2.8097703890166716
sg11
F2.810441723092451
sa(dp520
g8
F6.628969018481117
sg10
F1.6935819736324669
sg11
F1.691980107052855
sa(dp521
g8
F0.7307873586668708
sg10
F2.808920897633023
sg11
F2.809591899649593
sa(dp522
g8
F19.051744612720487
sg10
F0.0061751395218732795
sg11
F4.0333789346859924e-08
sa(dp523
g8
F16.19855653112943
sg10
F15.494417663807141
sg11
F15.49417399725438
sa(dp524
g8
F2.863089557856143
sg10
F2.3631716047516664
sg11
F2.363007174203115
sa(dp525
g8
F2.363171605127859
sg10
F2.363171605127859
sg11
F2.363171605127859
sasb.